GAS LISTING /tmp/ccpfcDXj.s 			page 1


   1              		.file	"my_semaphore.cpp"
   2              		.option pic
   3              		.option norelax
   4              		.text
   5              	.Ltext0:
   6              		.align	2
   7              		.globl	_ZN11MySemaphore8sem_openEi
   9              	_ZN11MySemaphore8sem_openEi:
  10              	.LFB38:
  11              		.file 1 "src/my_semaphore.cpp"
   1:src/my_semaphore.cpp **** //
   2:src/my_semaphore.cpp **** // Created by os on 8/10/24.
   3:src/my_semaphore.cpp **** //
   4:src/my_semaphore.cpp **** #include "../h/my_semaphore.hpp"
   5:src/my_semaphore.cpp **** #include "../h/syscall_c.hpp"
   6:src/my_semaphore.cpp **** 
   7:src/my_semaphore.cpp **** /*MySemaphore* MySemaphore::init_sem(int value) {
   8:src/my_semaphore.cpp ****     return new MySemaphore(value);
   9:src/my_semaphore.cpp **** }*/
  10:src/my_semaphore.cpp **** MySemaphore *MySemaphore::sem_open(int value) {
  12              		.loc 1 10 47
  13              		.cfi_startproc
  14              	.LVL0:
  15 0000 130101FE 		addi	sp,sp,-32
  16              		.cfi_def_cfa_offset 32
  17 0004 233C1100 		sd	ra,24(sp)
  18 0008 23388100 		sd	s0,16(sp)
  19 000c 23349100 		sd	s1,8(sp)
  20              		.cfi_offset 1, -8
  21              		.cfi_offset 8, -16
  22              		.cfi_offset 9, -24
  23 0010 13040102 		addi	s0,sp,32
  24              		.cfi_def_cfa 8, 0
  25 0014 93040500 		mv	s1,a0
  11:src/my_semaphore.cpp ****     //return init_sem(value);
  12:src/my_semaphore.cpp ****     return new MySemaphore(value);
  26              		.loc 1 12 5
  27              	.LVL1:
  28              	.LBB37:
  29              	.LBB38:
  30              		.file 2 "src/../h/my_semaphore.hpp"
   1:src/../h/my_semaphore.hpp **** //
   2:src/../h/my_semaphore.hpp **** // Created by os on 8/10/24.
   3:src/../h/my_semaphore.hpp **** //
   4:src/../h/my_semaphore.hpp **** 
   5:src/../h/my_semaphore.hpp **** #ifndef PROJECT_BASE_MY_SEMAPHORE_HPP
   6:src/../h/my_semaphore.hpp **** #define PROJECT_BASE_MY_SEMAPHORE_HPP
   7:src/../h/my_semaphore.hpp **** 
   8:src/../h/my_semaphore.hpp **** //#include "MemoryAllocator.hpp"
   9:src/../h/my_semaphore.hpp **** #include "list.hpp"
  10:src/../h/my_semaphore.hpp **** #include "tcb.hpp"
  11:src/../h/my_semaphore.hpp **** 
  12:src/../h/my_semaphore.hpp **** 
  13:src/../h/my_semaphore.hpp **** class MySemaphore {
  14:src/../h/my_semaphore.hpp **** 
  15:src/../h/my_semaphore.hpp **** private:
  16:src/../h/my_semaphore.hpp **** 
GAS LISTING /tmp/ccpfcDXj.s 			page 2


  17:src/../h/my_semaphore.hpp ****     void *operator new(size_t n)
  18:src/../h/my_semaphore.hpp ****     {
  19:src/../h/my_semaphore.hpp ****         //return __mem_alloc(n);
  20:src/../h/my_semaphore.hpp ****         //printInteger(n);
  21:src/../h/my_semaphore.hpp ****         return MemoryAllocator::mem_alloc(n);
  31              		.loc 2 21 9
  32              		.loc 2 21 42 is_stmt 0
  33 0018 13058001 		li	a0,24
  34              	.LVL2:
  35 001c 97000000 		call	_ZN15MemoryAllocator9mem_allocEm@plt
  35      E7800000 
  36              	.LVL3:
  37              	.LBE38:
  38              	.LBE37:
  39              	.LBB39:
  40              	.LBB40:
  41              	.LBB41:
  42              	.LBB42:
  43              		.file 3 "src/../h/list.hpp"
   1:src/../h/list.hpp **** //
   2:src/../h/list.hpp **** // Created by marko on 20.4.22..
   3:src/../h/list.hpp **** //
   4:src/../h/list.hpp **** 
   5:src/../h/list.hpp **** #ifndef OS1_VEZBE07_RISCV_CONTEXT_SWITCH_1_SYNCHRONOUS_LIST_HPP
   6:src/../h/list.hpp **** #define OS1_VEZBE07_RISCV_CONTEXT_SWITCH_1_SYNCHRONOUS_LIST_HPP
   7:src/../h/list.hpp **** 
   8:src/../h/list.hpp **** //#include "../test/printing.hpp"
   9:src/../h/list.hpp **** #include "MemoryAllocator.hpp"
  10:src/../h/list.hpp **** template<typename T>
  11:src/../h/list.hpp **** class List
  12:src/../h/list.hpp **** {
  13:src/../h/list.hpp **** private:
  14:src/../h/list.hpp **** 
  15:src/../h/list.hpp ****     void *operator new(size_t n)
  16:src/../h/list.hpp ****     {
  17:src/../h/list.hpp ****         //return __mem_alloc(n);
  18:src/../h/list.hpp ****         //printInteger(n);
  19:src/../h/list.hpp ****         return MemoryAllocator::mem_alloc(n);
  20:src/../h/list.hpp **** 
  21:src/../h/list.hpp ****     }
  22:src/../h/list.hpp **** 
  23:src/../h/list.hpp ****     void *operator new[](size_t n)
  24:src/../h/list.hpp ****     {
  25:src/../h/list.hpp ****         //return __mem_alloc(n);
  26:src/../h/list.hpp ****         //printStr("\nSize passed to the new operator");
  27:src/../h/list.hpp ****         //printInteger(n);
  28:src/../h/list.hpp ****         return MemoryAllocator::mem_alloc(n);
  29:src/../h/list.hpp **** 
  30:src/../h/list.hpp ****     }
  31:src/../h/list.hpp ****     void operator delete(void *p)
  32:src/../h/list.hpp ****     {
  33:src/../h/list.hpp ****         // mem_free(p);
  34:src/../h/list.hpp ****         MemoryAllocator::mem_free(p);
  35:src/../h/list.hpp ****     }
  36:src/../h/list.hpp **** 
  37:src/../h/list.hpp ****     void operator delete[](void *p)
  38:src/../h/list.hpp ****     {
GAS LISTING /tmp/ccpfcDXj.s 			page 3


  39:src/../h/list.hpp ****         //mem_free(p);
  40:src/../h/list.hpp ****         MemoryAllocator::mem_free(p);
  41:src/../h/list.hpp ****     }
  42:src/../h/list.hpp **** 
  43:src/../h/list.hpp ****     struct Elem
  44:src/../h/list.hpp ****     {
  45:src/../h/list.hpp ****         T *data;
  46:src/../h/list.hpp ****         Elem *next;
  47:src/../h/list.hpp **** 
  48:src/../h/list.hpp ****         Elem(T *data, Elem *next) : data(data), next(next) {}
  49:src/../h/list.hpp ****     };
  50:src/../h/list.hpp **** 
  51:src/../h/list.hpp ****     Elem *head, *tail;
  52:src/../h/list.hpp **** 
  53:src/../h/list.hpp **** public:
  54:src/../h/list.hpp ****     List() : head(0), tail(0) {}
  44              		.loc 3 54 29
  45 0024 23300500 		sd	zero,0(a0)
  46 0028 23340500 		sd	zero,8(a0)
  47              	.LVL4:
  48              	.LBE42:
  49              	.LBE41:
  22:src/../h/my_semaphore.hpp **** 
  23:src/../h/my_semaphore.hpp ****     }
  24:src/../h/my_semaphore.hpp ****     void *operator new[](size_t n)
  25:src/../h/my_semaphore.hpp ****     {
  26:src/../h/my_semaphore.hpp ****         //return __mem_alloc(n);
  27:src/../h/my_semaphore.hpp ****         //printStr("\nSize passed to the new operator");
  28:src/../h/my_semaphore.hpp ****         //printInteger(n);
  29:src/../h/my_semaphore.hpp ****         return MemoryAllocator::mem_alloc(n);
  30:src/../h/my_semaphore.hpp **** 
  31:src/../h/my_semaphore.hpp ****     }
  32:src/../h/my_semaphore.hpp ****     void operator delete(void *p)
  33:src/../h/my_semaphore.hpp ****     {
  34:src/../h/my_semaphore.hpp ****         // mem_free(p);
  35:src/../h/my_semaphore.hpp ****         MemoryAllocator::mem_free(p);
  36:src/../h/my_semaphore.hpp ****     }
  37:src/../h/my_semaphore.hpp ****     void operator delete[](void *p)
  38:src/../h/my_semaphore.hpp ****     {
  39:src/../h/my_semaphore.hpp ****         //mem_free(p);
  40:src/../h/my_semaphore.hpp ****         MemoryAllocator::mem_free(p);
  41:src/../h/my_semaphore.hpp ****     }
  42:src/../h/my_semaphore.hpp **** 
  43:src/../h/my_semaphore.hpp **** public:
  44:src/../h/my_semaphore.hpp ****     MySemaphore(int val = 1) {
  45:src/../h/my_semaphore.hpp ****         this->val = val;
  50              		.loc 2 45 9 is_stmt 1
  51              		.loc 2 45 19 is_stmt 0
  52 002c 232A9500 		sw	s1,20(a0)
  46:src/../h/my_semaphore.hpp ****         this->open = true;
  53              		.loc 2 46 9 is_stmt 1
  54              		.loc 2 46 20 is_stmt 0
  55 0030 13071000 		li	a4,1
  56 0034 2308E500 		sb	a4,16(a0)
  57              	.LVL5:
  58              	.LBE40:
  59              	.LBE39:
GAS LISTING /tmp/ccpfcDXj.s 			page 4


  13:src/my_semaphore.cpp **** }
  60              		.loc 1 13 1
  61 0038 83308101 		ld	ra,24(sp)
  62              		.cfi_restore 1
  63 003c 03340101 		ld	s0,16(sp)
  64              		.cfi_restore 8
  65              		.cfi_def_cfa 2, 32
  66 0040 83348100 		ld	s1,8(sp)
  67              		.cfi_restore 9
  68 0044 13010102 		addi	sp,sp,32
  69              		.cfi_def_cfa_offset 0
  70 0048 67800000 		jr	ra
  71              		.cfi_endproc
  72              	.LFE38:
  74              		.align	2
  75              		.globl	_ZN11MySemaphore9sem_closeEv
  77              	_ZN11MySemaphore9sem_closeEv:
  78              	.LFB39:
  14:src/my_semaphore.cpp **** 
  15:src/my_semaphore.cpp **** 
  16:src/my_semaphore.cpp **** 
  17:src/my_semaphore.cpp **** int MySemaphore::sem_close() {
  79              		.loc 1 17 30 is_stmt 1
  80              		.cfi_startproc
  81              	.LVL6:
  82 004c 130101FE 		addi	sp,sp,-32
  83              		.cfi_def_cfa_offset 32
  84 0050 233C1100 		sd	ra,24(sp)
  85 0054 23388100 		sd	s0,16(sp)
  86 0058 23349100 		sd	s1,8(sp)
  87 005c 23302101 		sd	s2,0(sp)
  88              		.cfi_offset 1, -8
  89              		.cfi_offset 8, -16
  90              		.cfi_offset 9, -24
  91              		.cfi_offset 18, -32
  92 0060 13040102 		addi	s0,sp,32
  93              		.cfi_def_cfa 8, 0
  94 0064 93040500 		mv	s1,a0
  18:src/my_semaphore.cpp ****     if (!this->open) {
  95              		.loc 1 18 5
  96              		.loc 1 18 16 is_stmt 0
  97 0068 83470501 		lbu	a5,16(a0)
  98              		.loc 1 18 5
  99 006c 63960702 		bnez	a5,.L6
  19:src/my_semaphore.cpp ****         return -1;
 100              		.loc 1 19 17
 101 0070 1305F0FF 		li	a0,-1
 102              	.LVL7:
 103 0074 6F008004 		j	.L4
 104              	.LVL8:
 105              	.L11:
 106              	.LBB43:
 107              	.LBB44:
 108              	.LBB45:
  55:src/../h/list.hpp **** 
  56:src/../h/list.hpp ****     List(const List<T> &) = delete;
  57:src/../h/list.hpp **** 
GAS LISTING /tmp/ccpfcDXj.s 			page 5


  58:src/../h/list.hpp ****     List<T> &operator=(const List<T> &) = delete;
  59:src/../h/list.hpp **** 
  60:src/../h/list.hpp ****     void addFirst(T *data)
  61:src/../h/list.hpp ****     {
  62:src/../h/list.hpp **** //        printInt(sizeof(Elem));
  63:src/../h/list.hpp **** //        printString("\n");
  64:src/../h/list.hpp ****         //Elem *elem = new Elem(data, head);
  65:src/../h/list.hpp ****         Elem *elem = (Elem*) MemoryAllocator::mem_alloc(sizeof(Elem));
  66:src/../h/list.hpp ****         elem->data = data;
  67:src/../h/list.hpp ****         elem->next = nullptr;
  68:src/../h/list.hpp ****         head = elem;
  69:src/../h/list.hpp ****         if (!tail) { tail = head; }
  70:src/../h/list.hpp ****     }
  71:src/../h/list.hpp **** 
  72:src/../h/list.hpp ****     void addLast(T *data)
  73:src/../h/list.hpp ****     {
  74:src/../h/list.hpp ****         //printStr("Added to the Scheduler List!!!!\n");
  75:src/../h/list.hpp ****         //Elem *elem = new Elem(data, 0);
  76:src/../h/list.hpp ****         Elem *elem = (Elem*) MemoryAllocator::mem_alloc(sizeof(Elem));
  77:src/../h/list.hpp ****         elem->data = data;
  78:src/../h/list.hpp ****         elem->next = nullptr;
  79:src/../h/list.hpp ****         if (tail)
  80:src/../h/list.hpp ****         {
  81:src/../h/list.hpp ****             tail->next = elem;
  82:src/../h/list.hpp ****             tail = elem;
  83:src/../h/list.hpp ****         } else
  84:src/../h/list.hpp ****         {
  85:src/../h/list.hpp ****             head = tail = elem;
  86:src/../h/list.hpp ****         }
  87:src/../h/list.hpp ****         //printStr("Added to the Scheduler List!!!!\n");
  88:src/../h/list.hpp ****     }
  89:src/../h/list.hpp **** 
  90:src/../h/list.hpp ****     T *removeFirst()
  91:src/../h/list.hpp ****     {
  92:src/../h/list.hpp ****         if (!head) { return 0; }
  93:src/../h/list.hpp **** 
  94:src/../h/list.hpp ****         Elem *elem = head;
  95:src/../h/list.hpp ****         head = head->next;
  96:src/../h/list.hpp ****         if (!head) { tail = 0; }
 109              		.loc 3 96 22
 110 0078 23B40400 		sd	zero,8(s1)
 111              	.L5:
  97:src/../h/list.hpp **** 
  98:src/../h/list.hpp ****         T *ret = elem->data;
 112              		.loc 3 98 12
 113 007c 03390500 		ld	s2,0(a0)
 114              	.LVL9:
 115              	.LBB46:
 116              	.LBB47:
  34:src/../h/list.hpp ****     }
 117              		.loc 3 34 34
 118 0080 97000000 		call	_ZN15MemoryAllocator8mem_freeEPv@plt
 118      E7800000 
 119              	.LVL10:
 120              	.LBE47:
 121              	.LBE46:
 122              	.LBE45:
GAS LISTING /tmp/ccpfcDXj.s 			page 6


 123              	.LBE44:
  20:src/my_semaphore.cpp ****     }
  21:src/my_semaphore.cpp ****     while (this->blocked_threads.peekFirst()) {
  22:src/my_semaphore.cpp ****         TCB* thread = this->blocked_threads.removeFirst();
  23:src/my_semaphore.cpp ****         thread->setBlocked(false);
 124              		.loc 1 23 9 is_stmt 1
 125              	.LBB49:
 126              	.LBB50:
 127              		.file 4 "src/../h/tcb.hpp"
   1:src/../h/tcb.hpp **** //
   2:src/../h/tcb.hpp **** // Created by marko on 20.4.22..
   3:src/../h/tcb.hpp **** //
   4:src/../h/tcb.hpp **** 
   5:src/../h/tcb.hpp **** #ifndef OS1_VEZBE07_RISCV_CONTEXT_SWITCH_2_INTERRUPT_TCB_HPP
   6:src/../h/tcb.hpp **** #define OS1_VEZBE07_RISCV_CONTEXT_SWITCH_2_INTERRUPT_TCB_HPP
   7:src/../h/tcb.hpp **** 
   8:src/../h/tcb.hpp **** #include "../lib/hw.h"
   9:src/../h/tcb.hpp **** #include "scheduler.hpp"
  10:src/../h/tcb.hpp **** #include "MemoryAllocator.hpp"
  11:src/../h/tcb.hpp **** 
  12:src/../h/tcb.hpp **** 
  13:src/../h/tcb.hpp **** // Thread Control Block
  14:src/../h/tcb.hpp **** class TCB
  15:src/../h/tcb.hpp **** {
  16:src/../h/tcb.hpp **** 
  17:src/../h/tcb.hpp **** 
  18:src/../h/tcb.hpp ****     void *operator new(size_t n)
  19:src/../h/tcb.hpp ****     {
  20:src/../h/tcb.hpp ****         //return __mem_alloc(n);
  21:src/../h/tcb.hpp ****         //printInteger(n);
  22:src/../h/tcb.hpp ****         return MemoryAllocator::mem_alloc(n);
  23:src/../h/tcb.hpp **** 
  24:src/../h/tcb.hpp ****     }
  25:src/../h/tcb.hpp **** 
  26:src/../h/tcb.hpp ****     void *operator new[](size_t n)
  27:src/../h/tcb.hpp ****     {
  28:src/../h/tcb.hpp ****         //return __mem_alloc(n);
  29:src/../h/tcb.hpp ****         //printStr("\nSize passed to the new operator");
  30:src/../h/tcb.hpp ****         //printInteger(n);
  31:src/../h/tcb.hpp ****         return MemoryAllocator::mem_alloc(n);
  32:src/../h/tcb.hpp **** 
  33:src/../h/tcb.hpp ****     }
  34:src/../h/tcb.hpp ****     void operator delete(void *p)
  35:src/../h/tcb.hpp ****     {
  36:src/../h/tcb.hpp ****        // mem_free(p);
  37:src/../h/tcb.hpp ****         MemoryAllocator::mem_free(p);
  38:src/../h/tcb.hpp ****     }
  39:src/../h/tcb.hpp **** 
  40:src/../h/tcb.hpp ****     void operator delete[](void *p)
  41:src/../h/tcb.hpp ****     {
  42:src/../h/tcb.hpp ****         //mem_free(p);
  43:src/../h/tcb.hpp ****         MemoryAllocator::mem_free(p);
  44:src/../h/tcb.hpp ****     }
  45:src/../h/tcb.hpp **** 
  46:src/../h/tcb.hpp **** 
  47:src/../h/tcb.hpp **** public:
  48:src/../h/tcb.hpp ****     ~TCB() { delete[] stack; }
GAS LISTING /tmp/ccpfcDXj.s 			page 7


  49:src/../h/tcb.hpp **** 
  50:src/../h/tcb.hpp ****     bool isFinished() const { return finished; }
  51:src/../h/tcb.hpp ****     void setFinished(bool value) { finished = value; }
  52:src/../h/tcb.hpp **** 
  53:src/../h/tcb.hpp ****     bool isBlocked() const { return blocked; }
  54:src/../h/tcb.hpp ****     void setBlocked(bool value) { blocked = value; }
 128              		.loc 4 54 35
 129              		.loc 4 54 43 is_stmt 0
 130 0088 A3040902 		sb	zero,41(s2)
 131              	.LVL11:
 132              	.LBE50:
 133              	.LBE49:
  24:src/my_semaphore.cpp ****         Scheduler::put(thread);
 134              		.loc 1 24 9 is_stmt 1
 135              		.loc 1 24 23 is_stmt 0
 136 008c 13050900 		mv	a0,s2
 137 0090 97000000 		call	_ZN9Scheduler3putEP3TCB@plt
 137      E7800000 
 138              	.LVL12:
 139              	.L6:
 140              	.LBE43:
  21:src/my_semaphore.cpp ****         TCB* thread = this->blocked_threads.removeFirst();
 141              		.loc 1 21 5 is_stmt 1
  21:src/my_semaphore.cpp ****         TCB* thread = this->blocked_threads.removeFirst();
 142              		.loc 1 21 44
 143              	.LBB52:
 144              	.LBB53:
  99:src/../h/list.hpp ****         //delete elem;
 100:src/../h/list.hpp ****         operator delete (elem);
 101:src/../h/list.hpp ****         return ret;
 102:src/../h/list.hpp ****     }
 103:src/../h/list.hpp **** 
 104:src/../h/list.hpp ****     T *peekFirst()
 105:src/../h/list.hpp ****     {
 106:src/../h/list.hpp ****         if (!head) { return 0; }
 145              		.loc 3 106 14 is_stmt 0
 146 0098 03B50400 		ld	a0,0(s1)
 147              		.loc 3 106 9
 148 009c 630E0500 		beqz	a0,.L8
 107:src/../h/list.hpp ****         return head->data;
 149              		.loc 3 107 22
 150 00a0 83370500 		ld	a5,0(a0)
 151              	.LVL13:
 152              	.LBE53:
 153              	.LBE52:
  21:src/my_semaphore.cpp ****         TCB* thread = this->blocked_threads.removeFirst();
 154              		.loc 1 21 44
 155 00a4 63880702 		beqz	a5,.L9
 156              	.LBB54:
  22:src/my_semaphore.cpp ****         thread->setBlocked(false);
 157              		.loc 1 22 9 is_stmt 1
 158              	.LVL14:
 159              	.LBB51:
 160              	.LBB48:
  95:src/../h/list.hpp ****         if (!head) { tail = 0; }
 161              		.loc 3 95 22 is_stmt 0
 162 00a8 83378500 		ld	a5,8(a0)
GAS LISTING /tmp/ccpfcDXj.s 			page 8


  95:src/../h/list.hpp ****         if (!head) { tail = 0; }
 163              		.loc 3 95 9
 164 00ac 23B0F400 		sd	a5,0(s1)
  96:src/../h/list.hpp **** 
 165              		.loc 3 96 9
 166 00b0 E39607FC 		bnez	a5,.L5
 167 00b4 6FF05FFC 		j	.L11
 168              	.LVL15:
 169              	.L8:
 170              	.LBE48:
 171              	.LBE51:
 172              	.LBE54:
  25:src/my_semaphore.cpp ****     }
  26:src/my_semaphore.cpp ****     return 0;
 173              		.loc 1 26 12
 174 00b8 13050000 		li	a0,0
 175              	.LVL16:
 176              	.L4:
  27:src/my_semaphore.cpp **** }
 177              		.loc 1 27 1
 178 00bc 83308101 		ld	ra,24(sp)
 179              		.cfi_remember_state
 180              		.cfi_restore 1
 181 00c0 03340101 		ld	s0,16(sp)
 182              		.cfi_restore 8
 183              		.cfi_def_cfa 2, 32
 184 00c4 83348100 		ld	s1,8(sp)
 185              		.cfi_restore 9
 186              	.LVL17:
 187 00c8 03390100 		ld	s2,0(sp)
 188              		.cfi_restore 18
 189 00cc 13010102 		addi	sp,sp,32
 190              		.cfi_def_cfa_offset 0
 191 00d0 67800000 		jr	ra
 192              	.LVL18:
 193              	.L9:
 194              		.cfi_restore_state
  26:src/my_semaphore.cpp **** }
 195              		.loc 1 26 12
 196 00d4 13050000 		li	a0,0
 197 00d8 6FF05FFE 		j	.L4
 198              		.cfi_endproc
 199              	.LFE39:
 201              		.align	2
 202              		.globl	_ZN11MySemaphore11sem_trywaitEv
 204              	_ZN11MySemaphore11sem_trywaitEv:
 205              	.LFB40:
  28:src/my_semaphore.cpp **** 
  29:src/my_semaphore.cpp **** int MySemaphore::sem_trywait() {
 206              		.loc 1 29 32 is_stmt 1
 207              		.cfi_startproc
 208              	.LVL19:
 209 00dc 130101FF 		addi	sp,sp,-16
 210              		.cfi_def_cfa_offset 16
 211 00e0 23348100 		sd	s0,8(sp)
 212              		.cfi_offset 8, -8
 213 00e4 13040101 		addi	s0,sp,16
GAS LISTING /tmp/ccpfcDXj.s 			page 9


 214              		.cfi_def_cfa 8, 0
  30:src/my_semaphore.cpp ****     if (!this->open) {
 215              		.loc 1 30 5
 216              		.loc 1 30 16 is_stmt 0
 217 00e8 83470501 		lbu	a5,16(a0)
 218              		.loc 1 30 5
 219 00ec 63820702 		beqz	a5,.L14
  31:src/my_semaphore.cpp ****         return -1;
  32:src/my_semaphore.cpp ****     }
  33:src/my_semaphore.cpp ****     if (this->val - 1 < 0) {
 220              		.loc 1 33 5 is_stmt 1
 221              		.loc 1 33 15 is_stmt 0
 222 00f0 83274501 		lw	a5,20(a0)
 223              		.loc 1 33 5
 224 00f4 635AF000 		blez	a5,.L17
  34:src/my_semaphore.cpp ****         return 0;
  35:src/my_semaphore.cpp ****     } else {
  36:src/my_semaphore.cpp ****         return 1;
 225              		.loc 1 36 16
 226 00f8 13051000 		li	a0,1
 227              	.LVL20:
 228              	.L13:
  37:src/my_semaphore.cpp ****     }
  38:src/my_semaphore.cpp **** }
 229              		.loc 1 38 1
 230 00fc 03348100 		ld	s0,8(sp)
 231              		.cfi_remember_state
 232              		.cfi_restore 8
 233              		.cfi_def_cfa 2, 16
 234 0100 13010101 		addi	sp,sp,16
 235              		.cfi_def_cfa_offset 0
 236 0104 67800000 		jr	ra
 237              	.LVL21:
 238              	.L17:
 239              		.cfi_restore_state
  34:src/my_semaphore.cpp ****         return 0;
 240              		.loc 1 34 16
 241 0108 13050000 		li	a0,0
 242              	.LVL22:
 243 010c 6FF01FFF 		j	.L13
 244              	.LVL23:
 245              	.L14:
  31:src/my_semaphore.cpp ****     }
 246              		.loc 1 31 17
 247 0110 1305F0FF 		li	a0,-1
 248              	.LVL24:
 249 0114 6FF09FFE 		j	.L13
 250              		.cfi_endproc
 251              	.LFE40:
 253              		.align	2
 254              		.globl	_ZN11MySemaphore8sem_waitEv
 256              	_ZN11MySemaphore8sem_waitEv:
 257              	.LFB41:
  39:src/my_semaphore.cpp **** 
  40:src/my_semaphore.cpp **** int MySemaphore::sem_wait() {
 258              		.loc 1 40 29 is_stmt 1
 259              		.cfi_startproc
GAS LISTING /tmp/ccpfcDXj.s 			page 10


 260              	.LVL25:
  41:src/my_semaphore.cpp ****     //if this sem is not for further usage
  42:src/my_semaphore.cpp ****     if(!this->open) {
 261              		.loc 1 42 5
 262              		.loc 1 42 15 is_stmt 0
 263 0118 83470501 		lbu	a5,16(a0)
 264              		.loc 1 42 5
 265 011c 6388070A 		beqz	a5,.L22
  40:src/my_semaphore.cpp ****     //if this sem is not for further usage
 266              		.loc 1 40 29
 267 0120 130101FE 		addi	sp,sp,-32
 268              		.cfi_def_cfa_offset 32
 269 0124 233C1100 		sd	ra,24(sp)
 270 0128 23388100 		sd	s0,16(sp)
 271 012c 23349100 		sd	s1,8(sp)
 272 0130 23302101 		sd	s2,0(sp)
 273              		.cfi_offset 1, -8
 274              		.cfi_offset 8, -16
 275              		.cfi_offset 9, -24
 276              		.cfi_offset 18, -32
 277 0134 13040102 		addi	s0,sp,32
 278              		.cfi_def_cfa 8, 0
 279 0138 93040500 		mv	s1,a0
  43:src/my_semaphore.cpp ****         return -1;
  44:src/my_semaphore.cpp ****     }
  45:src/my_semaphore.cpp ****     if (--this->val < 0) {
 280              		.loc 1 45 5 is_stmt 1
 281              		.loc 1 45 17 is_stmt 0
 282 013c 83274501 		lw	a5,20(a0)
 283              		.loc 1 45 9
 284 0140 9B87F7FF 		addiw	a5,a5,-1
 285              		.loc 1 45 21
 286 0144 232AF500 		sw	a5,20(a0)
 287              		.loc 1 45 5
 288 0148 13970702 		slli	a4,a5,32
 289 014c 63400702 		bltz	a4,.L30
  46:src/my_semaphore.cpp ****         //suspend the running process by putting it into the queue,
  47:src/my_semaphore.cpp ****         //take another process from the ready queue and switch context to it
  48:src/my_semaphore.cpp ****         if(!TCB::running) return -2;
  49:src/my_semaphore.cpp ****         TCB::running->setBlocked(true);
  50:src/my_semaphore.cpp ****         this->blocked_threads.addLast(TCB::running);                        //ovde puca!!!!!!
  51:src/my_semaphore.cpp ****         TCB::dispatch();
  52:src/my_semaphore.cpp ****         //-----------------------------------------Try with TCB::dispatch instead if it doesnt work
  53:src/my_semaphore.cpp ****         //if thread waited on deallocated sem, return error code
  54:src/my_semaphore.cpp ****         if (!this->open) {
  55:src/my_semaphore.cpp ****             return  -2;
  56:src/my_semaphore.cpp ****         }
  57:src/my_semaphore.cpp **** 
  58:src/my_semaphore.cpp ****     }
  59:src/my_semaphore.cpp ****     return 0;
 290              		.loc 1 59 12
 291 0150 13050000 		li	a0,0
 292              	.LVL26:
 293              	.L19:
  60:src/my_semaphore.cpp **** }
 294              		.loc 1 60 1
 295 0154 83308101 		ld	ra,24(sp)
GAS LISTING /tmp/ccpfcDXj.s 			page 11


 296              		.cfi_remember_state
 297              		.cfi_restore 1
 298 0158 03340101 		ld	s0,16(sp)
 299              		.cfi_restore 8
 300              		.cfi_def_cfa 2, 32
 301 015c 83348100 		ld	s1,8(sp)
 302              		.cfi_restore 9
 303              	.LVL27:
 304 0160 03390100 		ld	s2,0(sp)
 305              		.cfi_restore 18
 306 0164 13010102 		addi	sp,sp,32
 307              		.cfi_def_cfa_offset 0
 308 0168 67800000 		jr	ra
 309              	.LVL28:
 310              	.L30:
 311              		.cfi_restore_state
  48:src/my_semaphore.cpp ****         TCB::running->setBlocked(true);
 312              		.loc 1 48 9 is_stmt 1
  48:src/my_semaphore.cpp ****         TCB::running->setBlocked(true);
 313              		.loc 1 48 12 is_stmt 0
 314 016c 97070000 		la	a5,_ZN3TCB7runningE
 314      83B70700 
 315 0174 03B90700 		ld	s2,0(a5)
  48:src/my_semaphore.cpp ****         TCB::running->setBlocked(true);
 316              		.loc 1 48 9
 317 0178 630E0904 		beqz	s2,.L24
  49:src/my_semaphore.cpp ****         this->blocked_threads.addLast(TCB::running);                        //ovde puca!!!!!!
 318              		.loc 1 49 9 is_stmt 1
 319              	.LVL29:
 320              	.LBB55:
 321              	.LBB56:
 322              		.loc 4 54 35
 323              		.loc 4 54 43 is_stmt 0
 324 017c 93071000 		li	a5,1
 325 0180 A304F902 		sb	a5,41(s2)
 326              	.LVL30:
 327              	.LBE56:
 328              	.LBE55:
  50:src/my_semaphore.cpp ****         TCB::dispatch();
 329              		.loc 1 50 9 is_stmt 1
 330              	.LBB57:
 331              	.LBB58:
  76:src/../h/list.hpp ****         elem->data = data;
 332              		.loc 3 76 56 is_stmt 0
 333 0184 13050001 		li	a0,16
 334 0188 97000000 		call	_ZN15MemoryAllocator9mem_allocEm@plt
 334      E7800000 
 335              	.LVL31:
  77:src/../h/list.hpp ****         elem->next = nullptr;
 336              		.loc 3 77 9
 337 0190 23302501 		sd	s2,0(a0)
  78:src/../h/list.hpp ****         if (tail)
 338              		.loc 3 78 9
 339 0194 23340500 		sd	zero,8(a0)
  79:src/../h/list.hpp ****         {
 340              		.loc 3 79 13
 341 0198 83B78400 		ld	a5,8(s1)
GAS LISTING /tmp/ccpfcDXj.s 			page 12


  79:src/../h/list.hpp ****         {
 342              		.loc 3 79 9
 343 019c 63820702 		beqz	a5,.L20
  81:src/../h/list.hpp ****             tail = elem;
 344              		.loc 3 81 13
 345 01a0 23B4A700 		sd	a0,8(a5)
  82:src/../h/list.hpp ****         } else
 346              		.loc 3 82 13
 347 01a4 23B4A400 		sd	a0,8(s1)
 348              	.L21:
 349              	.LVL32:
 350              	.LBE58:
 351              	.LBE57:
  51:src/my_semaphore.cpp ****         //-----------------------------------------Try with TCB::dispatch instead if it doesnt work
 352              		.loc 1 51 9 is_stmt 1
  51:src/my_semaphore.cpp ****         //-----------------------------------------Try with TCB::dispatch instead if it doesnt work
 353              		.loc 1 51 22 is_stmt 0
 354 01a8 97000000 		call	_ZN3TCB8dispatchEv@plt
 354      E7800000 
 355              	.LVL33:
  54:src/my_semaphore.cpp ****             return  -2;
 356              		.loc 1 54 9 is_stmt 1
  54:src/my_semaphore.cpp ****             return  -2;
 357              		.loc 1 54 20 is_stmt 0
 358 01b0 83C70401 		lbu	a5,16(s1)
  54:src/my_semaphore.cpp ****             return  -2;
 359              		.loc 1 54 9
 360 01b4 63840702 		beqz	a5,.L25
  59:src/my_semaphore.cpp **** }
 361              		.loc 1 59 12
 362 01b8 13050000 		li	a0,0
 363 01bc 6FF09FF9 		j	.L19
 364              	.LVL34:
 365              	.L20:
 366              	.LBB60:
 367              	.LBB59:
  85:src/../h/list.hpp ****         }
 368              		.loc 3 85 13
 369 01c0 23B4A400 		sd	a0,8(s1)
 370 01c4 23B0A400 		sd	a0,0(s1)
 371 01c8 6FF01FFE 		j	.L21
 372              	.LVL35:
 373              	.L22:
 374              		.cfi_def_cfa_register 2
 375              		.cfi_restore 1
 376              		.cfi_restore 8
 377              		.cfi_restore 9
 378              		.cfi_restore 18
 379              	.LBE59:
 380              	.LBE60:
  43:src/my_semaphore.cpp ****     }
 381              		.loc 1 43 17
 382 01cc 1305F0FF 		li	a0,-1
 383              	.LVL36:
 384              		.loc 1 60 1
 385 01d0 67800000 		ret
 386              	.LVL37:
GAS LISTING /tmp/ccpfcDXj.s 			page 13


 387              	.L24:
 388              		.cfi_def_cfa_register 8
 389              		.cfi_offset 1, -8
 390              		.cfi_offset 8, -16
 391              		.cfi_offset 9, -24
 392              		.cfi_offset 18, -32
  48:src/my_semaphore.cpp ****         TCB::running->setBlocked(true);
 393              		.loc 1 48 35
 394 01d4 1305E0FF 		li	a0,-2
 395 01d8 6FF0DFF7 		j	.L19
 396              	.L25:
  55:src/my_semaphore.cpp ****         }
 397              		.loc 1 55 22
 398 01dc 1305E0FF 		li	a0,-2
 399 01e0 6FF05FF7 		j	.L19
 400              		.cfi_endproc
 401              	.LFE41:
 403              		.align	2
 404              		.globl	_ZN11MySemaphore10sem_signalEv
 406              	_ZN11MySemaphore10sem_signalEv:
 407              	.LFB42:
  61:src/my_semaphore.cpp **** int MySemaphore::sem_signal() {
 408              		.loc 1 61 31 is_stmt 1
 409              		.cfi_startproc
 410              	.LVL38:
  62:src/my_semaphore.cpp ****     //if this sem is not for further usage
  63:src/my_semaphore.cpp ****     if (!this->open) {
 411              		.loc 1 63 5
 412              		.loc 1 63 16 is_stmt 0
 413 01e4 03470501 		lbu	a4,16(a0)
 414              		.loc 1 63 5
 415 01e8 63080708 		beqz	a4,.L36
 416 01ec 93070500 		mv	a5,a0
  64:src/my_semaphore.cpp ****         return -1;
  65:src/my_semaphore.cpp ****     }
  66:src/my_semaphore.cpp ****     if (this->val++ < 0) {
 417              		.loc 1 66 5 is_stmt 1
 418              	.LBB61:
 419              		.loc 1 66 15 is_stmt 0
 420 01f0 03274501 		lw	a4,20(a0)
 421              		.loc 1 66 18
 422 01f4 9B061700 		addiw	a3,a4,1
 423 01f8 232AD500 		sw	a3,20(a0)
 424              		.loc 1 66 5
 425 01fc 63460700 		bltz	a4,.L43
 426              	.LBE61:
  67:src/my_semaphore.cpp ****         //take one process from the suspended queue
  68:src/my_semaphore.cpp ****         // and unblock it by putting it into the ready queue
  69:src/my_semaphore.cpp ****         TCB* unblocked_thread = this->blocked_threads.removeFirst();
  70:src/my_semaphore.cpp ****         if(!unblocked_thread) {
  71:src/my_semaphore.cpp ****             return -1;
  72:src/my_semaphore.cpp ****         }
  73:src/my_semaphore.cpp ****         unblocked_thread->setBlocked(false);
  74:src/my_semaphore.cpp ****         Scheduler::put(unblocked_thread);
  75:src/my_semaphore.cpp ****     }
  76:src/my_semaphore.cpp **** 
  77:src/my_semaphore.cpp ****     return 0;
GAS LISTING /tmp/ccpfcDXj.s 			page 14


 427              		.loc 1 77 12
 428 0200 13050000 		li	a0,0
 429              	.LVL39:
 430 0204 67800000 		ret
 431              	.LVL40:
 432              	.L43:
 433              	.LBB76:
 434              	.LBB62:
  69:src/my_semaphore.cpp ****         if(!unblocked_thread) {
 435              		.loc 1 69 9 is_stmt 1
 436              	.LBB63:
 437              	.LBB64:
  92:src/../h/list.hpp **** 
 438              		.loc 3 92 14 is_stmt 0
 439 0208 03350500 		ld	a0,0(a0)
 440              	.LVL41:
  92:src/../h/list.hpp **** 
 441              		.loc 3 92 9
 442 020c 630A0506 		beqz	a0,.L39
 443              	.LBE64:
 444              	.LBE63:
 445              	.LBE62:
 446              	.LBE76:
  61:src/my_semaphore.cpp ****     //if this sem is not for further usage
 447              		.loc 1 61 31
 448 0210 130101FE 		addi	sp,sp,-32
 449              		.cfi_def_cfa_offset 32
 450 0214 233C1100 		sd	ra,24(sp)
 451 0218 23388100 		sd	s0,16(sp)
 452 021c 23349100 		sd	s1,8(sp)
 453              		.cfi_offset 1, -8
 454              		.cfi_offset 8, -16
 455              		.cfi_offset 9, -24
 456 0220 13040102 		addi	s0,sp,32
 457              		.cfi_def_cfa 8, 0
 458              	.LVL42:
 459              	.LBB77:
 460              	.LBB73:
 461              	.LBB69:
 462              	.LBB67:
  95:src/../h/list.hpp ****         if (!head) { tail = 0; }
 463              		.loc 3 95 22
 464 0224 03378500 		ld	a4,8(a0)
  95:src/../h/list.hpp ****         if (!head) { tail = 0; }
 465              		.loc 3 95 9
 466 0228 23B0E700 		sd	a4,0(a5)
  96:src/../h/list.hpp **** 
 467              		.loc 3 96 9
 468 022c 630E0702 		beqz	a4,.L44
 469              	.L34:
  98:src/../h/list.hpp ****         //delete elem;
 470              		.loc 3 98 12
 471 0230 83340500 		ld	s1,0(a0)
 472              	.LVL43:
 473              	.LBB65:
 474              	.LBB66:
  34:src/../h/list.hpp ****     }
GAS LISTING /tmp/ccpfcDXj.s 			page 15


 475              		.loc 3 34 34
 476 0234 97000000 		call	_ZN15MemoryAllocator8mem_freeEPv@plt
 476      E7800000 
 477              	.LVL44:
 478              	.LBE66:
 479              	.LBE65:
 480              	.LBE67:
 481              	.LBE69:
  70:src/my_semaphore.cpp ****             return -1;
 482              		.loc 1 70 9 is_stmt 1
 483 023c 638A0402 		beqz	s1,.L45
  73:src/my_semaphore.cpp ****         Scheduler::put(unblocked_thread);
 484              		.loc 1 73 9
 485              	.LVL45:
 486              	.LBB70:
 487              	.LBB71:
 488              		.loc 4 54 35
 489              		.loc 4 54 43 is_stmt 0
 490 0240 A3840402 		sb	zero,41(s1)
 491              	.LVL46:
 492              	.LBE71:
 493              	.LBE70:
  74:src/my_semaphore.cpp ****     }
 494              		.loc 1 74 9 is_stmt 1
  74:src/my_semaphore.cpp ****     }
 495              		.loc 1 74 23 is_stmt 0
 496 0244 13850400 		mv	a0,s1
 497 0248 97000000 		call	_ZN9Scheduler3putEP3TCB@plt
 497      E7800000 
 498              	.LVL47:
 499              	.LBE73:
 500              	.LBE77:
 501              		.loc 1 77 12
 502 0250 13050000 		li	a0,0
 503              	.LVL48:
 504              	.L32:
  78:src/my_semaphore.cpp **** }
 505              		.loc 1 78 1
 506 0254 83308101 		ld	ra,24(sp)
 507              		.cfi_remember_state
 508              		.cfi_restore 1
 509 0258 03340101 		ld	s0,16(sp)
 510              		.cfi_restore 8
 511              		.cfi_def_cfa 2, 32
 512 025c 83348100 		ld	s1,8(sp)
 513              		.cfi_restore 9
 514 0260 13010102 		addi	sp,sp,32
 515              		.cfi_def_cfa_offset 0
 516 0264 67800000 		jr	ra
 517              	.LVL49:
 518              	.L44:
 519              		.cfi_restore_state
 520              	.LBB78:
 521              	.LBB74:
 522              	.LBB72:
 523              	.LBB68:
  96:src/../h/list.hpp **** 
GAS LISTING /tmp/ccpfcDXj.s 			page 16


 524              		.loc 3 96 22
 525 0268 23B40700 		sd	zero,8(a5)
 526 026c 6FF05FFC 		j	.L34
 527              	.LVL50:
 528              	.L45:
 529              	.LBE68:
 530              	.LBE72:
  71:src/my_semaphore.cpp ****         }
 531              		.loc 1 71 13 is_stmt 1
  71:src/my_semaphore.cpp ****         }
 532              		.loc 1 71 21 is_stmt 0
 533 0270 1305F0FF 		li	a0,-1
 534 0274 6FF01FFE 		j	.L32
 535              	.LVL51:
 536              	.L36:
 537              		.cfi_def_cfa_register 2
 538              		.cfi_restore 1
 539              		.cfi_restore 8
 540              		.cfi_restore 9
 541              	.LBE74:
 542              	.LBE78:
  64:src/my_semaphore.cpp ****     }
 543              		.loc 1 64 17
 544 0278 1305F0FF 		li	a0,-1
 545              	.LVL52:
 546 027c 67800000 		ret
 547              	.LVL53:
 548              	.L39:
 549              	.LBB79:
 550              	.LBB75:
  71:src/my_semaphore.cpp ****         }
 551              		.loc 1 71 13 is_stmt 1
  71:src/my_semaphore.cpp ****         }
 552              		.loc 1 71 21 is_stmt 0
 553 0280 1305F0FF 		li	a0,-1
 554              	.LBE75:
 555              	.LBE79:
 556              		.loc 1 78 1
 557 0284 67800000 		ret
 558              		.cfi_endproc
 559              	.LFE42:
 561              	.Letext0:
 562              		.file 5 "src/../h/../lib/hw.h"
 563              		.file 6 "src/../h/MemoryAllocator.hpp"
 564              		.file 7 "src/../h/scheduler.hpp"
 565              		.file 8 "src/../h/syscall_c.hpp"
GAS LISTING /tmp/ccpfcDXj.s 			page 17

