GAS LISTING /tmp/ccKvMZw7.s 			page 1


   1              		.file	"syscall_c.cpp"
   2              		.option pic
   3              		.option norelax
   4              		.text
   5              	.Ltext0:
   6              		.align	2
   7              		.globl	_Z9mem_allocm
   9              	_Z9mem_allocm:
  10              	.LFB38:
  11              		.file 1 "src/syscall_c.cpp"
   1:src/syscall_c.cpp **** //
   2:src/syscall_c.cpp **** // Created by os on 6/21/24.
   3:src/syscall_c.cpp **** //
   4:src/syscall_c.cpp **** 
   5:src/syscall_c.cpp **** #ifndef PROJECT_BASE_SYSCALL_C_C
   6:src/syscall_c.cpp **** #define PROJECT_BASE_SYSCALL_C_C
   7:src/syscall_c.cpp **** 
   8:src/syscall_c.cpp **** #include "../h/syscall_c.hpp"
   9:src/syscall_c.cpp **** #include "../test/printing.hpp"
  10:src/syscall_c.cpp **** //#include "../h/riscv.hpp"
  11:src/syscall_c.cpp **** #include "../lib/console.h"
  12:src/syscall_c.cpp **** 
  13:src/syscall_c.cpp **** 
  14:src/syscall_c.cpp **** void* mem_alloc(size_t size) {
  12              		.loc 1 14 30
  13              		.cfi_startproc
  14              	.LVL0:
  15 0000 130101FE 		addi	sp,sp,-32
  16              		.cfi_def_cfa_offset 32
  17 0004 233C8100 		sd	s0,24(sp)
  18              		.cfi_offset 8, -8
  19 0008 13040102 		addi	s0,sp,32
  20              		.cfi_def_cfa 8, 0
  15:src/syscall_c.cpp **** 
  16:src/syscall_c.cpp ****     volatile unsigned int trapCode = 0x01;
  21              		.loc 1 16 5
  22              		.loc 1 16 27 is_stmt 0
  23 000c 93071000 		li	a5,1
  24 0010 2326F4FE 		sw	a5,-20(s0)
  17:src/syscall_c.cpp ****     //new size in bytes
  18:src/syscall_c.cpp ****     volatile uint64 newSize = (16 + size + MEM_BLOCK_SIZE - 1) / MEM_BLOCK_SIZE * MEM_BLOCK_SIZE;
  25              		.loc 1 18 5 is_stmt 1
  26              		.loc 1 18 59 is_stmt 0
  27 0014 1305F504 		addi	a0,a0,79
  28              	.LVL1:
  29              		.loc 1 18 81
  30 0018 137505FC 		andi	a0,a0,-64
  31              	.LVL2:
  32              		.loc 1 18 21
  33 001c 2330A4FE 		sd	a0,-32(s0)
  19:src/syscall_c.cpp ****     //volatile uint64 newSize = (size + MEM_BLOCK_SIZE - 1) / MEM_BLOCK_SIZE * MEM_BLOCK_SIZE;
  20:src/syscall_c.cpp **** 
  21:src/syscall_c.cpp ****     __asm__ volatile("mv a0, %[trapCode]" : : [trapCode] "r"(trapCode));
  34              		.loc 1 21 5 is_stmt 1
  35              		.loc 1 21 62 is_stmt 0
  36 0020 8327C4FE 		lw	a5,-20(s0)
  37              		.loc 1 21 72
GAS LISTING /tmp/ccKvMZw7.s 			page 2


  38              	#APP
  39              	# 21 "src/syscall_c.cpp" 1
  22              	    __asm__ volatile("mv a1, %[newSize]" : : [newSize] "r"(newSize));
  40              		mv a0, a5
  41              	# 0 "" 2
  42              		.loc 1 22 5 is_stmt 1
  43              		.loc 1 22 60 is_stmt 0
  44              	#NO_APP
  45 0028 833704FE 		ld	a5,-32(s0)
  46              		.loc 1 22 69
  47              	#APP
  48              	# 22 "src/syscall_c.cpp" 1
  23              	    __asm__ volatile ("ecall");
  49              		mv a1, a5
  50              	# 0 "" 2
  51              		.loc 1 23 5 is_stmt 1
  52              		.loc 1 23 31 is_stmt 0
  53              	# 23 "src/syscall_c.cpp" 1
  24              	
  25:src/syscall_c.cpp ****     void* result;
  54              		ecall
  55              	# 0 "" 2
  56              		.loc 1 25 5 is_stmt 1
  26:src/syscall_c.cpp ****     __asm__ volatile("mv %0, a0" : [result] "=r"(result));
  57              		.loc 1 26 5
  58              		.loc 1 26 58 is_stmt 0
  59              	# 26 "src/syscall_c.cpp" 1
  27              	
  60              		mv a0, a0
  61              	# 0 "" 2
  62              	.LVL3:
  28:src/syscall_c.cpp ****     return result;
  63              		.loc 1 28 5 is_stmt 1
  29:src/syscall_c.cpp **** 
  30:src/syscall_c.cpp **** }
  64              		.loc 1 30 1 is_stmt 0
  65              	#NO_APP
  66 0038 03348101 		ld	s0,24(sp)
  67              		.cfi_restore 8
  68              		.cfi_def_cfa 2, 32
  69 003c 13010102 		addi	sp,sp,32
  70              		.cfi_def_cfa_offset 0
  71 0040 67800000 		jr	ra
  72              		.cfi_endproc
  73              	.LFE38:
  75              		.align	2
  76              		.globl	_Z8mem_freePv
  78              	_Z8mem_freePv:
  79              	.LFB39:
  31:src/syscall_c.cpp **** 
  32:src/syscall_c.cpp **** int mem_free(void* ptr) {
  80              		.loc 1 32 25 is_stmt 1
  81              		.cfi_startproc
  82              	.LVL4:
  83 0044 130101FE 		addi	sp,sp,-32
  84              		.cfi_def_cfa_offset 32
  85 0048 233C8100 		sd	s0,24(sp)
GAS LISTING /tmp/ccKvMZw7.s 			page 3


  86              		.cfi_offset 8, -8
  87 004c 13040102 		addi	s0,sp,32
  88              		.cfi_def_cfa 8, 0
  33:src/syscall_c.cpp **** 
  34:src/syscall_c.cpp ****     volatile unsigned int trapCode = 0x02;
  89              		.loc 1 34 5
  90              		.loc 1 34 27 is_stmt 0
  91 0050 93072000 		li	a5,2
  92 0054 2326F4FE 		sw	a5,-20(s0)
  35:src/syscall_c.cpp **** 
  36:src/syscall_c.cpp ****     // Arguments are stored in a0, a1... So if mv a0 is done first,
  37:src/syscall_c.cpp ****     // it will override what was in a0, when ptr was passed to this function!!!
  38:src/syscall_c.cpp ****     __asm__ volatile("mv a1, %[ptr]" : : [ptr] "r"(ptr));
  93              		.loc 1 38 5 is_stmt 1
  94              		.loc 1 38 57 is_stmt 0
  95              	#APP
  96              	# 38 "src/syscall_c.cpp" 1
  39              	    __asm__ volatile("mv a0, %[trapCode]" : : [trapCode] "r"(trapCode));
  97              		mv a1, a0
  98              	# 0 "" 2
  99              		.loc 1 39 5 is_stmt 1
 100              		.loc 1 39 62 is_stmt 0
 101              	#NO_APP
 102 005c 8327C4FE 		lw	a5,-20(s0)
 103              		.loc 1 39 72
 104              	#APP
 105              	# 39 "src/syscall_c.cpp" 1
  40              	    __asm__ volatile ("ecall");
 106              		mv a0, a5
 107              	# 0 "" 2
 108              		.loc 1 40 5 is_stmt 1
 109              		.loc 1 40 31 is_stmt 0
 110              	# 40 "src/syscall_c.cpp" 1
  41              	
  42:src/syscall_c.cpp ****     uint64 result;
 111              		ecall
 112              	# 0 "" 2
 113              		.loc 1 42 5 is_stmt 1
  43:src/syscall_c.cpp ****     __asm__ volatile("mv %[result], a0" : [result] "=r"(result));
 114              		.loc 1 43 5
 115              		.loc 1 43 65 is_stmt 0
 116              	# 43 "src/syscall_c.cpp" 1
  44              	
 117              		mv a0, a0
 118              	# 0 "" 2
 119              	.LVL5:
  45:src/syscall_c.cpp ****     return result;
 120              		.loc 1 45 5 is_stmt 1
  46:src/syscall_c.cpp **** }
 121              		.loc 1 46 1 is_stmt 0
 122              	#NO_APP
 123 006c 1B050500 		sext.w	a0,a0
 124              	.LVL6:
 125 0070 03348101 		ld	s0,24(sp)
 126              		.cfi_restore 8
 127              		.cfi_def_cfa 2, 32
 128 0074 13010102 		addi	sp,sp,32
GAS LISTING /tmp/ccKvMZw7.s 			page 4


 129              		.cfi_def_cfa_offset 0
 130 0078 67800000 		jr	ra
 131              		.cfi_endproc
 132              	.LFE39:
 134              		.align	2
 135              		.globl	_Z13thread_createPP3TCBPFvPvES2_
 137              	_Z13thread_createPP3TCBPFvPvES2_:
 138              	.LFB40:
  47:src/syscall_c.cpp **** 
  48:src/syscall_c.cpp **** int thread_create (thread_t* handle, void(*start_routine)(void*), void* arg) {
 139              		.loc 1 48 78 is_stmt 1
 140              		.cfi_startproc
 141              	.LVL7:
 142 007c 130101FC 		addi	sp,sp,-64
 143              		.cfi_def_cfa_offset 64
 144 0080 233C1102 		sd	ra,56(sp)
 145 0084 23388102 		sd	s0,48(sp)
 146 0088 23349102 		sd	s1,40(sp)
 147 008c 23302103 		sd	s2,32(sp)
 148 0090 233C3101 		sd	s3,24(sp)
 149              		.cfi_offset 1, -8
 150              		.cfi_offset 8, -16
 151              		.cfi_offset 9, -24
 152              		.cfi_offset 18, -32
 153              		.cfi_offset 19, -40
 154 0094 13040104 		addi	s0,sp,64
 155              		.cfi_def_cfa 8, 0
 156 0098 93090500 		mv	s3,a0
 157 009c 93840500 		mv	s1,a1
 158 00a0 13090600 		mv	s2,a2
  49:src/syscall_c.cpp **** 
  50:src/syscall_c.cpp ****     volatile unsigned int trapCode = 0x11;
 159              		.loc 1 50 5
 160              		.loc 1 50 27 is_stmt 0
 161 00a4 93071001 		li	a5,17
 162 00a8 2326F4FC 		sw	a5,-52(s0)
  51:src/syscall_c.cpp **** 
  52:src/syscall_c.cpp ****     //uint64* stack = new uint64[DEFAULT_STACK_SIZE];
  53:src/syscall_c.cpp ****     uint64* stack;
 163              		.loc 1 53 5 is_stmt 1
  54:src/syscall_c.cpp ****     if (start_routine != nullptr) {
 164              		.loc 1 54 5
 165 00ac 638C0504 		beqz	a1,.L7
  55:src/syscall_c.cpp ****         stack = new uint64[DEFAULT_STACK_SIZE / sizeof(uint64)];
 166              		.loc 1 55 9
 167              		.loc 1 55 63 is_stmt 0
 168 00b0 37150000 		li	a0,4096
 169              	.LVL8:
 170 00b4 97000000 		call	_Znam@plt
 170      E7800000 
 171              	.LVL9:
 172              	.L6:
  56:src/syscall_c.cpp ****         //stack = (uint64*) mem_alloc(DEFAULT_STACK_SIZE);
  57:src/syscall_c.cpp ****     } else {
  58:src/syscall_c.cpp ****         stack = nullptr;
  59:src/syscall_c.cpp ****     }
  60:src/syscall_c.cpp **** 
GAS LISTING /tmp/ccKvMZw7.s 			page 5


  61:src/syscall_c.cpp ****     __asm__ volatile("mv a4, %[handle]" : : [handle] "r"(handle));
 173              		.loc 1 61 5 is_stmt 1
 174              		.loc 1 61 66 is_stmt 0
 175              	#APP
 176              	# 61 "src/syscall_c.cpp" 1
  62              	    __asm__ volatile("mv a3, %[stack]" : : [stack] "r"(stack));
 177              		mv a4, s3
 178              	# 0 "" 2
 179              		.loc 1 62 5 is_stmt 1
 180              		.loc 1 62 63 is_stmt 0
 181              	# 62 "src/syscall_c.cpp" 1
  63              	    __asm__ volatile("mv a2, %[arg]" : : [arg] "r"(arg));
 182              		mv a3, a0
 183              	# 0 "" 2
 184              		.loc 1 63 5 is_stmt 1
 185              		.loc 1 63 57 is_stmt 0
 186              	# 63 "src/syscall_c.cpp" 1
  64              	    __asm__ volatile("mv a1, %[start_routine]" : : [start_routine] "r"(start_routine));
 187              		mv a2, s2
 188              	# 0 "" 2
 189              		.loc 1 64 5 is_stmt 1
 190              		.loc 1 64 87 is_stmt 0
 191              	# 64 "src/syscall_c.cpp" 1
  65              	    __asm__ volatile("mv a0, %[trapCode]" : : [trapCode] "r"(trapCode));
 192              		mv a1, s1
 193              	# 0 "" 2
 194              		.loc 1 65 5 is_stmt 1
 195              		.loc 1 65 62 is_stmt 0
 196              	#NO_APP
 197 00cc 8327C4FC 		lw	a5,-52(s0)
 198              		.loc 1 65 72
 199              	#APP
 200              	# 65 "src/syscall_c.cpp" 1
  66              	
  67:src/syscall_c.cpp ****     __asm__ volatile ("ecall");
 201              		mv a0, a5
 202              	# 0 "" 2
 203              		.loc 1 67 5 is_stmt 1
 204              		.loc 1 67 31 is_stmt 0
 205              	# 67 "src/syscall_c.cpp" 1
  68              	    //printString("\nreturned from ecall");
  69:src/syscall_c.cpp ****     uint64 volatile result;
 206              		ecall
 207              	# 0 "" 2
 208              		.loc 1 69 5 is_stmt 1
  70:src/syscall_c.cpp ****     __asm__ volatile("mv %[result], a0" : [result] "=r"(result));
 209              		.loc 1 70 5
 210              		.loc 1 70 65 is_stmt 0
 211              	# 70 "src/syscall_c.cpp" 1
  71              	    return result;
 212              		mv a5, a0
 213              	# 0 "" 2
 214              	#NO_APP
 215 00dc 2330F4FC 		sd	a5,-64(s0)
 216              		.loc 1 71 5 is_stmt 1
 217              		.loc 1 71 12 is_stmt 0
 218 00e0 033504FC 		ld	a0,-64(s0)
GAS LISTING /tmp/ccKvMZw7.s 			page 6


 219              	.LVL10:
  72:src/syscall_c.cpp **** };
 220              		.loc 1 72 1
 221 00e4 1B050500 		sext.w	a0,a0
 222 00e8 83308103 		ld	ra,56(sp)
 223              		.cfi_remember_state
 224              		.cfi_restore 1
 225 00ec 03340103 		ld	s0,48(sp)
 226              		.cfi_restore 8
 227              		.cfi_def_cfa 2, 64
 228 00f0 83348102 		ld	s1,40(sp)
 229              		.cfi_restore 9
 230              	.LVL11:
 231 00f4 03390102 		ld	s2,32(sp)
 232              		.cfi_restore 18
 233              	.LVL12:
 234 00f8 83398101 		ld	s3,24(sp)
 235              		.cfi_restore 19
 236              	.LVL13:
 237 00fc 13010104 		addi	sp,sp,64
 238              		.cfi_def_cfa_offset 0
 239 0100 67800000 		jr	ra
 240              	.LVL14:
 241              	.L7:
 242              		.cfi_restore_state
  58:src/syscall_c.cpp ****     }
 243              		.loc 1 58 15
 244 0104 13050000 		li	a0,0
 245              	.LVL15:
 246 0108 6FF05FFB 		j	.L6
 247              		.cfi_endproc
 248              	.LFE40:
 250              		.align	2
 251              		.globl	_Z11thread_exitv
 253              	_Z11thread_exitv:
 254              	.LFB41:
  73:src/syscall_c.cpp **** 
  74:src/syscall_c.cpp **** int thread_exit () {
 255              		.loc 1 74 20 is_stmt 1
 256              		.cfi_startproc
 257 010c 130101FE 		addi	sp,sp,-32
 258              		.cfi_def_cfa_offset 32
 259 0110 233C8100 		sd	s0,24(sp)
 260              		.cfi_offset 8, -8
 261 0114 13040102 		addi	s0,sp,32
 262              		.cfi_def_cfa 8, 0
  75:src/syscall_c.cpp ****     volatile unsigned int trapCode = 0x12;
 263              		.loc 1 75 5
 264              		.loc 1 75 27 is_stmt 0
 265 0118 93072001 		li	a5,18
 266 011c 2326F4FE 		sw	a5,-20(s0)
  76:src/syscall_c.cpp ****     __asm__ volatile("mv a0, %[trapCode]" : : [trapCode] "r"(trapCode));
 267              		.loc 1 76 5 is_stmt 1
 268              		.loc 1 76 62 is_stmt 0
 269 0120 8327C4FE 		lw	a5,-20(s0)
 270              		.loc 1 76 72
 271              	#APP
GAS LISTING /tmp/ccKvMZw7.s 			page 7


 272              	# 76 "src/syscall_c.cpp" 1
  77              	
  78:src/syscall_c.cpp ****     __asm__ volatile ("ecall");
 273              		mv a0, a5
 274              	# 0 "" 2
 275              		.loc 1 78 5 is_stmt 1
 276              		.loc 1 78 31 is_stmt 0
 277              	# 78 "src/syscall_c.cpp" 1
  79              	    uint64 volatile result;
 278              		ecall
 279              	# 0 "" 2
 280              		.loc 1 79 5 is_stmt 1
  80:src/syscall_c.cpp ****     __asm__ volatile("mv %[result], a0" : [result] "=r"(result));
 281              		.loc 1 80 5
 282              		.loc 1 80 65 is_stmt 0
 283              	# 80 "src/syscall_c.cpp" 1
  81              	    return result;
 284              		mv a5, a0
 285              	# 0 "" 2
 286              	#NO_APP
 287 0130 2330F4FE 		sd	a5,-32(s0)
 288              		.loc 1 81 5 is_stmt 1
 289              		.loc 1 81 12 is_stmt 0
 290 0134 033504FE 		ld	a0,-32(s0)
  82:src/syscall_c.cpp **** }
 291              		.loc 1 82 1
 292 0138 1B050500 		sext.w	a0,a0
 293 013c 03348101 		ld	s0,24(sp)
 294              		.cfi_restore 8
 295              		.cfi_def_cfa 2, 32
 296 0140 13010102 		addi	sp,sp,32
 297              		.cfi_def_cfa_offset 0
 298 0144 67800000 		jr	ra
 299              		.cfi_endproc
 300              	.LFE41:
 302              		.align	2
 303              		.globl	_Z15thread_dispatchv
 305              	_Z15thread_dispatchv:
 306              	.LFB42:
  83:src/syscall_c.cpp **** 
  84:src/syscall_c.cpp **** 
  85:src/syscall_c.cpp **** void thread_dispatch () {
 307              		.loc 1 85 25 is_stmt 1
 308              		.cfi_startproc
 309 0148 130101FE 		addi	sp,sp,-32
 310              		.cfi_def_cfa_offset 32
 311 014c 233C8100 		sd	s0,24(sp)
 312              		.cfi_offset 8, -8
 313 0150 13040102 		addi	s0,sp,32
 314              		.cfi_def_cfa 8, 0
  86:src/syscall_c.cpp ****     volatile unsigned int trapCode = 0x13;
 315              		.loc 1 86 5
 316              		.loc 1 86 27 is_stmt 0
 317 0154 93073001 		li	a5,19
 318 0158 2326F4FE 		sw	a5,-20(s0)
  87:src/syscall_c.cpp ****     __asm__ volatile("mv a0, %[trapCode]" : : [trapCode] "r"(trapCode));
 319              		.loc 1 87 5 is_stmt 1
GAS LISTING /tmp/ccKvMZw7.s 			page 8


 320              		.loc 1 87 62 is_stmt 0
 321 015c 8327C4FE 		lw	a5,-20(s0)
 322              		.loc 1 87 72
 323              	#APP
 324              	# 87 "src/syscall_c.cpp" 1
  88              	    __asm__ volatile ("ecall");
 325              		mv a0, a5
 326              	# 0 "" 2
 327              		.loc 1 88 5 is_stmt 1
 328              		.loc 1 88 31 is_stmt 0
 329              	# 88 "src/syscall_c.cpp" 1
  89              	}
 330              		ecall
 331              	# 0 "" 2
 332              		.loc 1 89 1
 333              	#NO_APP
 334 0168 03348101 		ld	s0,24(sp)
 335              		.cfi_restore 8
 336              		.cfi_def_cfa 2, 32
 337 016c 13010102 		addi	sp,sp,32
 338              		.cfi_def_cfa_offset 0
 339 0170 67800000 		jr	ra
 340              		.cfi_endproc
 341              	.LFE42:
 343              		.align	2
 344              		.globl	_Z8sem_openPP11MySemaphorej
 346              	_Z8sem_openPP11MySemaphorej:
 347              	.LFB43:
  90:src/syscall_c.cpp **** 
  91:src/syscall_c.cpp **** 
  92:src/syscall_c.cpp **** int sem_open(sem_t* handle, unsigned init) {
 348              		.loc 1 92 44 is_stmt 1
 349              		.cfi_startproc
 350              	.LVL16:
 351 0174 130101FE 		addi	sp,sp,-32
 352              		.cfi_def_cfa_offset 32
 353 0178 233C8100 		sd	s0,24(sp)
 354              		.cfi_offset 8, -8
 355 017c 13040102 		addi	s0,sp,32
 356              		.cfi_def_cfa 8, 0
  93:src/syscall_c.cpp ****     volatile unsigned int trapCode = 0x21;
 357              		.loc 1 93 5
 358              		.loc 1 93 27 is_stmt 0
 359 0180 93071002 		li	a5,33
 360 0184 2326F4FE 		sw	a5,-20(s0)
  94:src/syscall_c.cpp **** 
  95:src/syscall_c.cpp ****     __asm__ volatile("mv a2, %[handle]" : : [handle] "r"(handle));
 361              		.loc 1 95 5 is_stmt 1
 362              		.loc 1 95 66 is_stmt 0
 363              	#APP
 364              	# 95 "src/syscall_c.cpp" 1
  96              	    __asm__ volatile("mv a1, %[init]" : : [init] "r"(init));
 365              		mv a2, a0
 366              	# 0 "" 2
 367              		.loc 1 96 5 is_stmt 1
 368              		.loc 1 96 60 is_stmt 0
 369              	# 96 "src/syscall_c.cpp" 1
GAS LISTING /tmp/ccKvMZw7.s 			page 9


  97              	    __asm__ volatile("mv a0, %[trapCode]" : : [trapCode] "r"(trapCode));
 370              		mv a1, a1
 371              	# 0 "" 2
 372              		.loc 1 97 5 is_stmt 1
 373              		.loc 1 97 62 is_stmt 0
 374              	#NO_APP
 375 0190 8327C4FE 		lw	a5,-20(s0)
 376              		.loc 1 97 72
 377              	#APP
 378              	# 97 "src/syscall_c.cpp" 1
  98              	
  99:src/syscall_c.cpp ****     __asm__ volatile("ecall");
 379              		mv a0, a5
 380              	# 0 "" 2
 381              		.loc 1 99 5 is_stmt 1
 382              		.loc 1 99 30 is_stmt 0
 383              	# 99 "src/syscall_c.cpp" 1
 100              	
 101:src/syscall_c.cpp ****     uint64 volatile result;
 384              		ecall
 385              	# 0 "" 2
 386              		.loc 1 101 5 is_stmt 1
 102:src/syscall_c.cpp ****     __asm__ volatile("mv %[result], a0" : [result] "=r"(result));
 387              		.loc 1 102 5
 388              		.loc 1 102 65 is_stmt 0
 389              	# 102 "src/syscall_c.cpp" 1
 103              	
 390              		mv a5, a0
 391              	# 0 "" 2
 392              	#NO_APP
 393 01a0 2330F4FE 		sd	a5,-32(s0)
 104:src/syscall_c.cpp ****     return result;
 394              		.loc 1 104 5 is_stmt 1
 395              		.loc 1 104 12 is_stmt 0
 396 01a4 033504FE 		ld	a0,-32(s0)
 397              	.LVL17:
 105:src/syscall_c.cpp **** }
 398              		.loc 1 105 1
 399 01a8 1B050500 		sext.w	a0,a0
 400 01ac 03348101 		ld	s0,24(sp)
 401              		.cfi_restore 8
 402              		.cfi_def_cfa 2, 32
 403 01b0 13010102 		addi	sp,sp,32
 404              		.cfi_def_cfa_offset 0
 405 01b4 67800000 		jr	ra
 406              		.cfi_endproc
 407              	.LFE43:
 409              		.align	2
 410              		.globl	_Z9sem_closeP11MySemaphore
 412              	_Z9sem_closeP11MySemaphore:
 413              	.LFB44:
 106:src/syscall_c.cpp **** 
 107:src/syscall_c.cpp **** int sem_close(sem_t id) {
 414              		.loc 1 107 25 is_stmt 1
 415              		.cfi_startproc
 416              	.LVL18:
 417 01b8 130101FE 		addi	sp,sp,-32
GAS LISTING /tmp/ccKvMZw7.s 			page 10


 418              		.cfi_def_cfa_offset 32
 419 01bc 233C8100 		sd	s0,24(sp)
 420              		.cfi_offset 8, -8
 421 01c0 13040102 		addi	s0,sp,32
 422              		.cfi_def_cfa 8, 0
 108:src/syscall_c.cpp ****     volatile unsigned int trapCode = 0x22;
 423              		.loc 1 108 5
 424              		.loc 1 108 27 is_stmt 0
 425 01c4 93072002 		li	a5,34
 426 01c8 2326F4FE 		sw	a5,-20(s0)
 109:src/syscall_c.cpp ****     __asm__ volatile("mv a1, %[id]" : : [id] "r"(id));
 427              		.loc 1 109 5 is_stmt 1
 428              		.loc 1 109 54 is_stmt 0
 429              	#APP
 430              	# 109 "src/syscall_c.cpp" 1
 110              	    __asm__ volatile("mv a0, %[trapCode]" : : [trapCode] "r"(trapCode));
 431              		mv a1, a0
 432              	# 0 "" 2
 433              		.loc 1 110 5 is_stmt 1
 434              		.loc 1 110 62 is_stmt 0
 435              	#NO_APP
 436 01d0 8327C4FE 		lw	a5,-20(s0)
 437              		.loc 1 110 72
 438              	#APP
 439              	# 110 "src/syscall_c.cpp" 1
 111              	
 112:src/syscall_c.cpp ****     __asm__ volatile("ecall");
 440              		mv a0, a5
 441              	# 0 "" 2
 442              		.loc 1 112 5 is_stmt 1
 443              		.loc 1 112 30 is_stmt 0
 444              	# 112 "src/syscall_c.cpp" 1
 113              	
 114:src/syscall_c.cpp ****     uint64 volatile result;
 445              		ecall
 446              	# 0 "" 2
 447              		.loc 1 114 5 is_stmt 1
 115:src/syscall_c.cpp ****     __asm__ volatile("mv %[result], a0" : [result] "=r"(result));
 448              		.loc 1 115 5
 449              		.loc 1 115 65 is_stmt 0
 450              	# 115 "src/syscall_c.cpp" 1
 116              	
 451              		mv a5, a0
 452              	# 0 "" 2
 453              	#NO_APP
 454 01e0 2330F4FE 		sd	a5,-32(s0)
 117:src/syscall_c.cpp ****     return result;
 455              		.loc 1 117 5 is_stmt 1
 456              		.loc 1 117 12 is_stmt 0
 457 01e4 033504FE 		ld	a0,-32(s0)
 458              	.LVL19:
 118:src/syscall_c.cpp **** }
 459              		.loc 1 118 1
 460 01e8 1B050500 		sext.w	a0,a0
 461 01ec 03348101 		ld	s0,24(sp)
 462              		.cfi_restore 8
 463              		.cfi_def_cfa 2, 32
GAS LISTING /tmp/ccKvMZw7.s 			page 11


 464 01f0 13010102 		addi	sp,sp,32
 465              		.cfi_def_cfa_offset 0
 466 01f4 67800000 		jr	ra
 467              		.cfi_endproc
 468              	.LFE44:
 470              		.align	2
 471              		.globl	_Z8sem_waitP11MySemaphore
 473              	_Z8sem_waitP11MySemaphore:
 474              	.LFB45:
 119:src/syscall_c.cpp **** 
 120:src/syscall_c.cpp **** int sem_wait(sem_t id) {
 475              		.loc 1 120 24 is_stmt 1
 476              		.cfi_startproc
 477              	.LVL20:
 478 01f8 130101FE 		addi	sp,sp,-32
 479              		.cfi_def_cfa_offset 32
 480 01fc 233C8100 		sd	s0,24(sp)
 481              		.cfi_offset 8, -8
 482 0200 13040102 		addi	s0,sp,32
 483              		.cfi_def_cfa 8, 0
 121:src/syscall_c.cpp ****     volatile unsigned int trapCode = 0x23;
 484              		.loc 1 121 5
 485              		.loc 1 121 27 is_stmt 0
 486 0204 93073002 		li	a5,35
 487 0208 2326F4FE 		sw	a5,-20(s0)
 122:src/syscall_c.cpp ****     __asm__ volatile("mv a1, %[id]" : : [id] "r"(id));
 488              		.loc 1 122 5 is_stmt 1
 489              		.loc 1 122 54 is_stmt 0
 490              	#APP
 491              	# 122 "src/syscall_c.cpp" 1
 123              	    __asm__ volatile("mv a0, %[trapCode]" : : [trapCode] "r"(trapCode));
 492              		mv a1, a0
 493              	# 0 "" 2
 494              		.loc 1 123 5 is_stmt 1
 495              		.loc 1 123 62 is_stmt 0
 496              	#NO_APP
 497 0210 8327C4FE 		lw	a5,-20(s0)
 498              		.loc 1 123 72
 499              	#APP
 500              	# 123 "src/syscall_c.cpp" 1
 124              	
 125:src/syscall_c.cpp ****     __asm__ volatile("ecall");
 501              		mv a0, a5
 502              	# 0 "" 2
 503              		.loc 1 125 5 is_stmt 1
 504              		.loc 1 125 30 is_stmt 0
 505              	# 125 "src/syscall_c.cpp" 1
 126              	
 127:src/syscall_c.cpp ****     uint64 volatile result;
 506              		ecall
 507              	# 0 "" 2
 508              		.loc 1 127 5 is_stmt 1
 128:src/syscall_c.cpp ****     __asm__ volatile("mv %[result], a0" : [result] "=r"(result));
 509              		.loc 1 128 5
 510              		.loc 1 128 65 is_stmt 0
 511              	# 128 "src/syscall_c.cpp" 1
 129              	
GAS LISTING /tmp/ccKvMZw7.s 			page 12


 512              		mv a5, a0
 513              	# 0 "" 2
 514              	#NO_APP
 515 0220 2330F4FE 		sd	a5,-32(s0)
 130:src/syscall_c.cpp ****     return result;
 516              		.loc 1 130 5 is_stmt 1
 517              		.loc 1 130 12 is_stmt 0
 518 0224 033504FE 		ld	a0,-32(s0)
 519              	.LVL21:
 131:src/syscall_c.cpp **** }
 520              		.loc 1 131 1
 521 0228 1B050500 		sext.w	a0,a0
 522 022c 03348101 		ld	s0,24(sp)
 523              		.cfi_restore 8
 524              		.cfi_def_cfa 2, 32
 525 0230 13010102 		addi	sp,sp,32
 526              		.cfi_def_cfa_offset 0
 527 0234 67800000 		jr	ra
 528              		.cfi_endproc
 529              	.LFE45:
 531              		.align	2
 532              		.globl	_Z10sem_signalP11MySemaphore
 534              	_Z10sem_signalP11MySemaphore:
 535              	.LFB46:
 132:src/syscall_c.cpp **** 
 133:src/syscall_c.cpp **** int sem_signal(sem_t id) {
 536              		.loc 1 133 26 is_stmt 1
 537              		.cfi_startproc
 538              	.LVL22:
 539 0238 130101FE 		addi	sp,sp,-32
 540              		.cfi_def_cfa_offset 32
 541 023c 233C8100 		sd	s0,24(sp)
 542              		.cfi_offset 8, -8
 543 0240 13040102 		addi	s0,sp,32
 544              		.cfi_def_cfa 8, 0
 134:src/syscall_c.cpp ****     volatile unsigned int trapCode = 0x24;
 545              		.loc 1 134 5
 546              		.loc 1 134 27 is_stmt 0
 547 0244 93074002 		li	a5,36
 548 0248 2326F4FE 		sw	a5,-20(s0)
 135:src/syscall_c.cpp ****     __asm__ volatile("mv a1, %[id]" : : [id] "r"(id));
 549              		.loc 1 135 5 is_stmt 1
 550              		.loc 1 135 54 is_stmt 0
 551              	#APP
 552              	# 135 "src/syscall_c.cpp" 1
 136              	    __asm__ volatile("mv a0, %[trapCode]" : : [trapCode] "r"(trapCode));
 553              		mv a1, a0
 554              	# 0 "" 2
 555              		.loc 1 136 5 is_stmt 1
 556              		.loc 1 136 62 is_stmt 0
 557              	#NO_APP
 558 0250 8327C4FE 		lw	a5,-20(s0)
 559              		.loc 1 136 72
 560              	#APP
 561              	# 136 "src/syscall_c.cpp" 1
 137              	
 138:src/syscall_c.cpp ****     __asm__ volatile("ecall");
GAS LISTING /tmp/ccKvMZw7.s 			page 13


 562              		mv a0, a5
 563              	# 0 "" 2
 564              		.loc 1 138 5 is_stmt 1
 565              		.loc 1 138 30 is_stmt 0
 566              	# 138 "src/syscall_c.cpp" 1
 139              	
 140:src/syscall_c.cpp ****     uint64 volatile result;
 567              		ecall
 568              	# 0 "" 2
 569              		.loc 1 140 5 is_stmt 1
 141:src/syscall_c.cpp ****     __asm__ volatile("mv %[result], a0" : [result] "=r"(result));
 570              		.loc 1 141 5
 571              		.loc 1 141 65 is_stmt 0
 572              	# 141 "src/syscall_c.cpp" 1
 142              	
 573              		mv a5, a0
 574              	# 0 "" 2
 575              	#NO_APP
 576 0260 2330F4FE 		sd	a5,-32(s0)
 143:src/syscall_c.cpp ****     return result;
 577              		.loc 1 143 5 is_stmt 1
 578              		.loc 1 143 12 is_stmt 0
 579 0264 033504FE 		ld	a0,-32(s0)
 580              	.LVL23:
 144:src/syscall_c.cpp **** }
 581              		.loc 1 144 1
 582 0268 1B050500 		sext.w	a0,a0
 583 026c 03348101 		ld	s0,24(sp)
 584              		.cfi_restore 8
 585              		.cfi_def_cfa 2, 32
 586 0270 13010102 		addi	sp,sp,32
 587              		.cfi_def_cfa_offset 0
 588 0274 67800000 		jr	ra
 589              		.cfi_endproc
 590              	.LFE46:
 592              		.align	2
 593              		.globl	_Z11sem_trywaitP11MySemaphore
 595              	_Z11sem_trywaitP11MySemaphore:
 596              	.LFB47:
 145:src/syscall_c.cpp **** 
 146:src/syscall_c.cpp **** int sem_trywait(sem_t id) {
 597              		.loc 1 146 27 is_stmt 1
 598              		.cfi_startproc
 599              	.LVL24:
 600 0278 130101FE 		addi	sp,sp,-32
 601              		.cfi_def_cfa_offset 32
 602 027c 233C8100 		sd	s0,24(sp)
 603              		.cfi_offset 8, -8
 604 0280 13040102 		addi	s0,sp,32
 605              		.cfi_def_cfa 8, 0
 147:src/syscall_c.cpp ****     volatile unsigned int trapCode = 0x26;
 606              		.loc 1 147 5
 607              		.loc 1 147 27 is_stmt 0
 608 0284 93076002 		li	a5,38
 609 0288 2326F4FE 		sw	a5,-20(s0)
 148:src/syscall_c.cpp ****     __asm__ volatile("mv a1, %[id]" : : [id] "r"(id));
 610              		.loc 1 148 5 is_stmt 1
GAS LISTING /tmp/ccKvMZw7.s 			page 14


 611              		.loc 1 148 54 is_stmt 0
 612              	#APP
 613              	# 148 "src/syscall_c.cpp" 1
 149              	    __asm__ volatile("mv a0, %[trapCode]" : : [trapCode] "r"(trapCode));
 614              		mv a1, a0
 615              	# 0 "" 2
 616              		.loc 1 149 5 is_stmt 1
 617              		.loc 1 149 62 is_stmt 0
 618              	#NO_APP
 619 0290 8327C4FE 		lw	a5,-20(s0)
 620              		.loc 1 149 72
 621              	#APP
 622              	# 149 "src/syscall_c.cpp" 1
 150              	
 151:src/syscall_c.cpp ****     __asm__ volatile("ecall");
 623              		mv a0, a5
 624              	# 0 "" 2
 625              		.loc 1 151 5 is_stmt 1
 626              		.loc 1 151 30 is_stmt 0
 627              	# 151 "src/syscall_c.cpp" 1
 152              	
 153:src/syscall_c.cpp ****     uint64 volatile result;
 628              		ecall
 629              	# 0 "" 2
 630              		.loc 1 153 5 is_stmt 1
 154:src/syscall_c.cpp ****     __asm__ volatile("mv %[result], a0" : [result] "=r"(result));
 631              		.loc 1 154 5
 632              		.loc 1 154 65 is_stmt 0
 633              	# 154 "src/syscall_c.cpp" 1
 155              	
 634              		mv a5, a0
 635              	# 0 "" 2
 636              	#NO_APP
 637 02a0 2330F4FE 		sd	a5,-32(s0)
 156:src/syscall_c.cpp ****     return result;
 638              		.loc 1 156 5 is_stmt 1
 639              		.loc 1 156 12 is_stmt 0
 640 02a4 033504FE 		ld	a0,-32(s0)
 641              	.LVL25:
 157:src/syscall_c.cpp **** }
 642              		.loc 1 157 1
 643 02a8 1B050500 		sext.w	a0,a0
 644 02ac 03348101 		ld	s0,24(sp)
 645              		.cfi_restore 8
 646              		.cfi_def_cfa 2, 32
 647 02b0 13010102 		addi	sp,sp,32
 648              		.cfi_def_cfa_offset 0
 649 02b4 67800000 		jr	ra
 650              		.cfi_endproc
 651              	.LFE47:
 653              		.align	2
 654              		.globl	_Z10time_sleepm
 656              	_Z10time_sleepm:
 657              	.LFB48:
 158:src/syscall_c.cpp **** 
 159:src/syscall_c.cpp **** 
 160:src/syscall_c.cpp **** int time_sleep(time_t time) {
GAS LISTING /tmp/ccKvMZw7.s 			page 15


 658              		.loc 1 160 29 is_stmt 1
 659              		.cfi_startproc
 660              	.LVL26:
 661 02b8 130101FE 		addi	sp,sp,-32
 662              		.cfi_def_cfa_offset 32
 663 02bc 233C8100 		sd	s0,24(sp)
 664              		.cfi_offset 8, -8
 665 02c0 13040102 		addi	s0,sp,32
 666              		.cfi_def_cfa 8, 0
 161:src/syscall_c.cpp ****     volatile unsigned int trapCode = 0x31;
 667              		.loc 1 161 5
 668              		.loc 1 161 27 is_stmt 0
 669 02c4 93071003 		li	a5,49
 670 02c8 2326F4FE 		sw	a5,-20(s0)
 162:src/syscall_c.cpp ****     __asm__ volatile("mv a1, %[time]" : : [time] "r"(time));
 671              		.loc 1 162 5 is_stmt 1
 672              		.loc 1 162 60 is_stmt 0
 673              	#APP
 674              	# 162 "src/syscall_c.cpp" 1
 163              	    __asm__ volatile("mv a0, %[trapCode]" : : [trapCode] "r"(trapCode));
 675              		mv a1, a0
 676              	# 0 "" 2
 677              		.loc 1 163 5 is_stmt 1
 678              		.loc 1 163 62 is_stmt 0
 679              	#NO_APP
 680 02d0 8327C4FE 		lw	a5,-20(s0)
 681              		.loc 1 163 72
 682              	#APP
 683              	# 163 "src/syscall_c.cpp" 1
 164              	    __asm__ volatile ("ecall");
 684              		mv a0, a5
 685              	# 0 "" 2
 686              		.loc 1 164 5 is_stmt 1
 687              		.loc 1 164 31 is_stmt 0
 688              	# 164 "src/syscall_c.cpp" 1
 165              	    uint64 volatile result;
 689              		ecall
 690              	# 0 "" 2
 691              		.loc 1 165 5 is_stmt 1
 166:src/syscall_c.cpp ****     __asm__ volatile("mv %[result], a0" : [result] "=r"(result));
 692              		.loc 1 166 5
 693              		.loc 1 166 65 is_stmt 0
 694              	# 166 "src/syscall_c.cpp" 1
 167              	    return result;
 695              		mv a5, a0
 696              	# 0 "" 2
 697              	#NO_APP
 698 02e0 2330F4FE 		sd	a5,-32(s0)
 699              		.loc 1 167 5 is_stmt 1
 700              		.loc 1 167 12 is_stmt 0
 701 02e4 033504FE 		ld	a0,-32(s0)
 702              	.LVL27:
 168:src/syscall_c.cpp **** }
 703              		.loc 1 168 1
 704 02e8 1B050500 		sext.w	a0,a0
 705 02ec 03348101 		ld	s0,24(sp)
 706              		.cfi_restore 8
GAS LISTING /tmp/ccKvMZw7.s 			page 16


 707              		.cfi_def_cfa 2, 32
 708 02f0 13010102 		addi	sp,sp,32
 709              		.cfi_def_cfa_offset 0
 710 02f4 67800000 		jr	ra
 711              		.cfi_endproc
 712              	.LFE48:
 714              		.align	2
 715              		.globl	_Z4getcv
 717              	_Z4getcv:
 718              	.LFB49:
 169:src/syscall_c.cpp **** 
 170:src/syscall_c.cpp **** char getc() {
 719              		.loc 1 170 13 is_stmt 1
 720              		.cfi_startproc
 721 02f8 130101FE 		addi	sp,sp,-32
 722              		.cfi_def_cfa_offset 32
 723 02fc 233C8100 		sd	s0,24(sp)
 724              		.cfi_offset 8, -8
 725 0300 13040102 		addi	s0,sp,32
 726              		.cfi_def_cfa 8, 0
 171:src/syscall_c.cpp **** 
 172:src/syscall_c.cpp ****     volatile unsigned int trapCode = 0x41;
 727              		.loc 1 172 5
 728              		.loc 1 172 27 is_stmt 0
 729 0304 93071004 		li	a5,65
 730 0308 2326F4FE 		sw	a5,-20(s0)
 173:src/syscall_c.cpp ****     __asm__ volatile("mv a0, %[trapCode]" : : [trapCode] "r"(trapCode));
 731              		.loc 1 173 5 is_stmt 1
 732              		.loc 1 173 62 is_stmt 0
 733 030c 8327C4FE 		lw	a5,-20(s0)
 734              		.loc 1 173 72
 735              	#APP
 736              	# 173 "src/syscall_c.cpp" 1
 174              	    __asm__ volatile ("ecall");
 737              		mv a0, a5
 738              	# 0 "" 2
 739              		.loc 1 174 5 is_stmt 1
 740              		.loc 1 174 31 is_stmt 0
 741              	# 174 "src/syscall_c.cpp" 1
 175              	
 176:src/syscall_c.cpp ****     char ret_char;
 742              		ecall
 743              	# 0 "" 2
 744              		.loc 1 176 5 is_stmt 1
 177:src/syscall_c.cpp ****     __asm__ volatile("mv %[ret_char], a0" : [ret_char] "=r"(ret_char));
 745              		.loc 1 177 5
 746              		.loc 1 177 71 is_stmt 0
 747              	# 177 "src/syscall_c.cpp" 1
 178              	    return ret_char;
 748              		mv a0, a0
 749              	# 0 "" 2
 750              	.LVL28:
 751              		.loc 1 178 5 is_stmt 1
 179:src/syscall_c.cpp **** 
 180:src/syscall_c.cpp ****     //return __getc();
 181:src/syscall_c.cpp **** 
 182:src/syscall_c.cpp **** }
GAS LISTING /tmp/ccKvMZw7.s 			page 17


 752              		.loc 1 182 1 is_stmt 0
 753              	#NO_APP
 754 031c 1375F50F 		andi	a0,a0,0xff
 755 0320 03348101 		ld	s0,24(sp)
 756              		.cfi_restore 8
 757              		.cfi_def_cfa 2, 32
 758 0324 13010102 		addi	sp,sp,32
 759              		.cfi_def_cfa_offset 0
 760 0328 67800000 		jr	ra
 761              		.cfi_endproc
 762              	.LFE49:
 764              		.align	2
 765              		.globl	_Z4putcc
 767              	_Z4putcc:
 768              	.LFB50:
 183:src/syscall_c.cpp **** 
 184:src/syscall_c.cpp **** void putc(char c) {
 769              		.loc 1 184 19 is_stmt 1
 770              		.cfi_startproc
 771              	.LVL29:
 772 032c 130101FE 		addi	sp,sp,-32
 773              		.cfi_def_cfa_offset 32
 774 0330 233C8100 		sd	s0,24(sp)
 775              		.cfi_offset 8, -8
 776 0334 13040102 		addi	s0,sp,32
 777              		.cfi_def_cfa 8, 0
 185:src/syscall_c.cpp ****     volatile unsigned int trapCode = 0x42;
 778              		.loc 1 185 5
 779              		.loc 1 185 27 is_stmt 0
 780 0338 93072004 		li	a5,66
 781 033c 2326F4FE 		sw	a5,-20(s0)
 186:src/syscall_c.cpp ****     __asm__ volatile("mv a1, %[c]" : : [c] "r"(c));
 782              		.loc 1 186 5 is_stmt 1
 783              		.loc 1 186 51 is_stmt 0
 784              	#APP
 785              	# 186 "src/syscall_c.cpp" 1
 187              	    __asm__ volatile("mv a0, %[trapCode]" : : [trapCode] "r"(trapCode));
 786              		mv a1, a0
 787              	# 0 "" 2
 788              		.loc 1 187 5 is_stmt 1
 789              		.loc 1 187 62 is_stmt 0
 790              	#NO_APP
 791 0344 8327C4FE 		lw	a5,-20(s0)
 792              		.loc 1 187 72
 793              	#APP
 794              	# 187 "src/syscall_c.cpp" 1
 188              	    __asm__ volatile ("ecall");
 795              		mv a0, a5
 796              	# 0 "" 2
 797              		.loc 1 188 5 is_stmt 1
 798              		.loc 1 188 31 is_stmt 0
 799              	# 188 "src/syscall_c.cpp" 1
 189              	}
 800              		ecall
 801              	# 0 "" 2
 802              		.loc 1 189 1
 803              	#NO_APP
GAS LISTING /tmp/ccKvMZw7.s 			page 18


 804 0350 03348101 		ld	s0,24(sp)
 805              		.cfi_restore 8
 806              		.cfi_def_cfa 2, 32
 807 0354 13010102 		addi	sp,sp,32
 808              		.cfi_def_cfa_offset 0
 809 0358 67800000 		jr	ra
 810              		.cfi_endproc
 811              	.LFE50:
 813              	.Letext0:
 814              		.file 2 "src/../h/../lib/hw.h"
 815              		.file 3 "src/../h/list.hpp"
 816              		.file 4 "src/../h/tcb.hpp"
 817              		.file 5 "src/../h/my_semaphore.hpp"
 818              		.file 6 "src/../h/syscall_c.hpp"
GAS LISTING /tmp/ccKvMZw7.s 			page 19

