GAS LISTING /tmp/ccKMrF8F.s 			page 1


   1              		.file	"syscall_cpp.cpp"
   2              		.option pic
   3              		.option norelax
   4              		.text
   5              	.Ltext0:
   6              		.section	.text._ZN6Thread3runEv,"axG",@progbits,_ZN6Thread3runEv,comdat
   7              		.align	2
   8              		.weak	_ZN6Thread3runEv
  10              	_ZN6Thread3runEv:
  11              	.LFB38:
  12              		.file 1 "src/../h/syscall_cpp.hpp"
   1:src/../h/syscall_cpp.hpp **** //
   2:src/../h/syscall_cpp.hpp **** // Created by os on 8/10/24.
   3:src/../h/syscall_cpp.hpp **** //
   4:src/../h/syscall_cpp.hpp **** 
   5:src/../h/syscall_cpp.hpp **** #ifndef PROJECT_BASE_SYSCALL_CPP_HPP
   6:src/../h/syscall_cpp.hpp **** #define PROJECT_BASE_SYSCALL_CPP_HPP
   7:src/../h/syscall_cpp.hpp **** 
   8:src/../h/syscall_cpp.hpp **** #include "syscall_c.hpp"
   9:src/../h/syscall_cpp.hpp **** #include "MemoryAllocator.hpp"
  10:src/../h/syscall_cpp.hpp **** #include "../lib/console.h"
  11:src/../h/syscall_cpp.hpp **** 
  12:src/../h/syscall_cpp.hpp **** void* operator new(size_t);
  13:src/../h/syscall_cpp.hpp **** void operator delete(void*) noexcept;
  14:src/../h/syscall_cpp.hpp **** 
  15:src/../h/syscall_cpp.hpp **** class Thread {
  16:src/../h/syscall_cpp.hpp **** public:
  17:src/../h/syscall_cpp.hpp ****     Thread (void (*body)(void*), void* arg);
  18:src/../h/syscall_cpp.hpp ****     virtual ~Thread ();
  19:src/../h/syscall_cpp.hpp ****     int start ();
  20:src/../h/syscall_cpp.hpp ****     static void dispatch ();
  21:src/../h/syscall_cpp.hpp ****     static int sleep (time_t);
  22:src/../h/syscall_cpp.hpp **** protected:
  23:src/../h/syscall_cpp.hpp ****     Thread ();
  24:src/../h/syscall_cpp.hpp ****     virtual void run () {}
  13              		.loc 1 24 18
  14              		.cfi_startproc
  15              	.LVL0:
  16 0000 130101FF 		addi	sp,sp,-16
  17              		.cfi_def_cfa_offset 16
  18 0004 23348100 		sd	s0,8(sp)
  19              		.cfi_offset 8, -8
  20 0008 13040101 		addi	s0,sp,16
  21              		.cfi_def_cfa 8, 0
  22              		.loc 1 24 26 is_stmt 0
  23 000c 03348100 		ld	s0,8(sp)
  24              		.cfi_restore 8
  25              		.cfi_def_cfa 2, 16
  26 0010 13010101 		addi	sp,sp,16
  27              		.cfi_def_cfa_offset 0
  28 0014 67800000 		jr	ra
  29              		.cfi_endproc
  30              	.LFE38:
  32              		.section	.text._ZN6Thread14thread_wrapperEPv,"axG",@progbits,_ZN6Thread14thread_wrapperEPv,comdat
  33              		.align	2
  34              		.weak	_ZN6Thread14thread_wrapperEPv
  36              	_ZN6Thread14thread_wrapperEPv:
GAS LISTING /tmp/ccKMrF8F.s 			page 2


  37              	.LFB39:
  25:src/../h/syscall_cpp.hpp **** private:
  26:src/../h/syscall_cpp.hpp ****     thread_t myHandle;
  27:src/../h/syscall_cpp.hpp ****     void (*body)(void*);
  28:src/../h/syscall_cpp.hpp ****     void* arg;
  29:src/../h/syscall_cpp.hpp **** 
  30:src/../h/syscall_cpp.hpp ****     static void thread_wrapper(void* thread) {
  38              		.loc 1 30 17 is_stmt 1
  39              		.cfi_startproc
  40              	.LVL1:
  31:src/../h/syscall_cpp.hpp ****         Thread* t = (Thread*) thread;
  41              		.loc 1 31 9
  32:src/../h/syscall_cpp.hpp ****         if(t) {
  42              		.loc 1 32 9
  43 0000 63080502 		beqz	a0,.L6
  30:src/../h/syscall_cpp.hpp ****         Thread* t = (Thread*) thread;
  44              		.loc 1 30 17 is_stmt 0
  45 0004 130101FF 		addi	sp,sp,-16
  46              		.cfi_def_cfa_offset 16
  47 0008 23341100 		sd	ra,8(sp)
  48 000c 23308100 		sd	s0,0(sp)
  49              		.cfi_offset 1, -8
  50              		.cfi_offset 8, -16
  51 0010 13040101 		addi	s0,sp,16
  52              		.cfi_def_cfa 8, 0
  33:src/../h/syscall_cpp.hpp ****             ((Thread*)t)->run();
  53              		.loc 1 33 13 is_stmt 1
  54              		.loc 1 33 31 is_stmt 0
  55 0014 83370500 		ld	a5,0(a0)
  56 0018 83B70701 		ld	a5,16(a5)
  57              		.loc 1 33 30
  58 001c E7800700 		jalr	a5
  59              	.LVL2:
  34:src/../h/syscall_cpp.hpp ****         }
  35:src/../h/syscall_cpp.hpp ****     }
  60              		.loc 1 35 5
  61 0020 83308100 		ld	ra,8(sp)
  62              		.cfi_restore 1
  63 0024 03340100 		ld	s0,0(sp)
  64              		.cfi_restore 8
  65              		.cfi_def_cfa 2, 16
  66 0028 13010101 		addi	sp,sp,16
  67              		.cfi_def_cfa_offset 0
  68 002c 67800000 		jr	ra
  69              	.LVL3:
  70              	.L6:
  71 0030 67800000 		ret
  72              		.cfi_endproc
  73              	.LFE39:
  75              		.text
  76              		.align	2
  77              		.globl	_ZN6ThreadD2Ev
  79              	_ZN6ThreadD2Ev:
  80              	.LFB49:
  81              		.file 2 "src/syscall_cpp.cpp"
   1:src/syscall_cpp.cpp **** //
   2:src/syscall_cpp.cpp **** // Created by os on 8/13/24.
GAS LISTING /tmp/ccKMrF8F.s 			page 3


   3:src/syscall_cpp.cpp **** //
   4:src/syscall_cpp.cpp **** #include "../h/syscall_cpp.hpp"
   5:src/syscall_cpp.cpp **** 
   6:src/syscall_cpp.cpp **** //THREADS
   7:src/syscall_cpp.cpp **** 
   8:src/syscall_cpp.cpp **** Thread::Thread(void (*body)(void *), void *arg) {
   9:src/syscall_cpp.cpp ****     thread_create(&this->myHandle, body, arg);
  10:src/syscall_cpp.cpp **** }
  11:src/syscall_cpp.cpp **** 
  12:src/syscall_cpp.cpp **** Thread::~Thread() {
  82              		.loc 2 12 1 is_stmt 1
  83              		.cfi_startproc
  84              	.LVL4:
  85 0000 130101FF 		addi	sp,sp,-16
  86              		.cfi_def_cfa_offset 16
  87 0004 23341100 		sd	ra,8(sp)
  88 0008 23308100 		sd	s0,0(sp)
  89              		.cfi_offset 1, -8
  90              		.cfi_offset 8, -16
  91 000c 13040101 		addi	s0,sp,16
  92              		.cfi_def_cfa 8, 0
  93              	.LBB2:
  94              		.loc 2 12 17 is_stmt 0
  95 0010 97070000 		lla	a5,_ZTV6Thread+16
  95      93870700 
  96 0018 2330F500 		sd	a5,0(a0)
  13:src/syscall_cpp.cpp ****     //mem_free(this->myHandle);
  14:src/syscall_cpp.cpp ****     //delete this->myHandle;            //doesnt work, calling destructor,
  15:src/syscall_cpp.cpp ****     operator delete (this->myHandle);   //and operator delete bypasses it
  97              		.loc 2 15 5 is_stmt 1
  98              		.loc 2 15 21 is_stmt 0
  99 001c 03358500 		ld	a0,8(a0)
 100              	.LVL5:
 101 0020 97000000 		call	_ZdlPv@plt
 101      E7800000 
 102              	.LVL6:
 103              	.LBE2:
  16:src/syscall_cpp.cpp **** }
 104              		.loc 2 16 1
 105 0028 83308100 		ld	ra,8(sp)
 106              		.cfi_restore 1
 107 002c 03340100 		ld	s0,0(sp)
 108              		.cfi_restore 8
 109              		.cfi_def_cfa 2, 16
 110 0030 13010101 		addi	sp,sp,16
 111              		.cfi_def_cfa_offset 0
 112 0034 67800000 		jr	ra
 113              		.cfi_endproc
 114              	.LFE49:
 116              		.globl	_ZN6ThreadD1Ev
 117              		.set	_ZN6ThreadD1Ev,_ZN6ThreadD2Ev
 118              		.align	2
 119              		.globl	_ZN6ThreadD0Ev
 121              	_ZN6ThreadD0Ev:
 122              	.LFB51:
  12:src/syscall_cpp.cpp ****     //mem_free(this->myHandle);
 123              		.loc 2 12 1 is_stmt 1
GAS LISTING /tmp/ccKMrF8F.s 			page 4


 124              		.cfi_startproc
 125              	.LVL7:
 126 0038 130101FE 		addi	sp,sp,-32
 127              		.cfi_def_cfa_offset 32
 128 003c 233C1100 		sd	ra,24(sp)
 129 0040 23388100 		sd	s0,16(sp)
 130 0044 23349100 		sd	s1,8(sp)
 131              		.cfi_offset 1, -8
 132              		.cfi_offset 8, -16
 133              		.cfi_offset 9, -24
 134 0048 13040102 		addi	s0,sp,32
 135              		.cfi_def_cfa 8, 0
 136 004c 93040500 		mv	s1,a0
 137              		.loc 2 16 1 is_stmt 0
 138 0050 97000000 		call	_ZN6ThreadD1Ev
 138      E7800000 
 139              	.LVL8:
 140 0058 13850400 		mv	a0,s1
 141 005c 97000000 		call	_ZdlPv@plt
 141      E7800000 
 142              	.LVL9:
 143 0064 83308101 		ld	ra,24(sp)
 144              		.cfi_restore 1
 145 0068 03340101 		ld	s0,16(sp)
 146              		.cfi_restore 8
 147              		.cfi_def_cfa 2, 32
 148 006c 83348100 		ld	s1,8(sp)
 149              		.cfi_restore 9
 150              	.LVL10:
 151 0070 13010102 		addi	sp,sp,32
 152              		.cfi_def_cfa_offset 0
 153 0074 67800000 		jr	ra
 154              		.cfi_endproc
 155              	.LFE51:
 157              		.align	2
 158              		.globl	_ZN9SemaphoreD2Ev
 160              	_ZN9SemaphoreD2Ev:
 161              	.LFB62:
  17:src/syscall_cpp.cpp **** 
  18:src/syscall_cpp.cpp **** int Thread::start() {
  19:src/syscall_cpp.cpp ****     //thread_create(&this->myHandle, thread_wrapper, this);
  20:src/syscall_cpp.cpp ****     thread_create(&this->myHandle, body, arg);
  21:src/syscall_cpp.cpp ****     return 0;
  22:src/syscall_cpp.cpp **** }
  23:src/syscall_cpp.cpp **** 
  24:src/syscall_cpp.cpp **** void Thread::dispatch() {
  25:src/syscall_cpp.cpp ****     thread_dispatch();
  26:src/syscall_cpp.cpp **** }
  27:src/syscall_cpp.cpp **** 
  28:src/syscall_cpp.cpp **** int Thread::sleep(time_t) {
  29:src/syscall_cpp.cpp ****     return 0;
  30:src/syscall_cpp.cpp **** }
  31:src/syscall_cpp.cpp **** 
  32:src/syscall_cpp.cpp **** Thread::Thread() {
  33:src/syscall_cpp.cpp ****     this->body = Thread::thread_wrapper;    //implicit conversion, the same as: this->body = &Threa
  34:src/syscall_cpp.cpp ****     this->arg = this;
  35:src/syscall_cpp.cpp **** }
GAS LISTING /tmp/ccKMrF8F.s 			page 5


  36:src/syscall_cpp.cpp **** 
  37:src/syscall_cpp.cpp **** 
  38:src/syscall_cpp.cpp **** //SEMAPHORES
  39:src/syscall_cpp.cpp **** 
  40:src/syscall_cpp.cpp **** Semaphore::Semaphore(unsigned int init) {
  41:src/syscall_cpp.cpp ****     sem_open(&this->myHandle, init);
  42:src/syscall_cpp.cpp **** }
  43:src/syscall_cpp.cpp **** 
  44:src/syscall_cpp.cpp **** Semaphore::~Semaphore() {
 162              		.loc 2 44 1 is_stmt 1
 163              		.cfi_startproc
 164              		.cfi_personality 0x9b,DW.ref.__gxx_personality_v0
 165              		.cfi_lsda 0x1b,.LLSDA62
 166              	.LVL11:
 167 0078 130101FF 		addi	sp,sp,-16
 168              		.cfi_def_cfa_offset 16
 169 007c 23341100 		sd	ra,8(sp)
 170 0080 23308100 		sd	s0,0(sp)
 171              		.cfi_offset 1, -8
 172              		.cfi_offset 8, -16
 173 0084 13040101 		addi	s0,sp,16
 174              		.cfi_def_cfa 8, 0
 175              	.LBB3:
 176              		.loc 2 44 23 is_stmt 0
 177 0088 97070000 		lla	a5,_ZTV9Semaphore+16
 177      93870700 
 178 0090 2330F500 		sd	a5,0(a0)
  45:src/syscall_cpp.cpp ****     sem_close(this->myHandle);
 179              		.loc 2 45 5 is_stmt 1
 180              		.loc 2 45 14 is_stmt 0
 181 0094 03358500 		ld	a0,8(a0)
 182              	.LVL12:
 183 0098 97000000 		call	_Z9sem_closeP11MySemaphore@plt
 183      E7800000 
 184              	.LVL13:
 185              	.LBE3:
  46:src/syscall_cpp.cpp **** }
 186              		.loc 2 46 1
 187 00a0 83308100 		ld	ra,8(sp)
 188              		.cfi_restore 1
 189 00a4 03340100 		ld	s0,0(sp)
 190              		.cfi_restore 8
 191              		.cfi_def_cfa 2, 16
 192 00a8 13010101 		addi	sp,sp,16
 193              		.cfi_def_cfa_offset 0
 194 00ac 67800000 		jr	ra
 195              		.cfi_endproc
 196              	.LFE62:
 197              		.globl	__gxx_personality_v0
 198              		.section	.gcc_except_table,"a",@progbits
 199              	.LLSDA62:
 200 0000 FF       		.byte	0xff
 201 0001 FF       		.byte	0xff
 202 0002 03       		.byte	0x3
 203 0003 00       		.byte	0
 204              		.text
 206              		.globl	_ZN9SemaphoreD1Ev
GAS LISTING /tmp/ccKMrF8F.s 			page 6


 207              		.set	_ZN9SemaphoreD1Ev,_ZN9SemaphoreD2Ev
 208              		.align	2
 209              		.globl	_ZN9SemaphoreD0Ev
 211              	_ZN9SemaphoreD0Ev:
 212              	.LFB64:
  44:src/syscall_cpp.cpp ****     sem_close(this->myHandle);
 213              		.loc 2 44 1 is_stmt 1
 214              		.cfi_startproc
 215              	.LVL14:
 216 00b0 130101FE 		addi	sp,sp,-32
 217              		.cfi_def_cfa_offset 32
 218 00b4 233C1100 		sd	ra,24(sp)
 219 00b8 23388100 		sd	s0,16(sp)
 220 00bc 23349100 		sd	s1,8(sp)
 221              		.cfi_offset 1, -8
 222              		.cfi_offset 8, -16
 223              		.cfi_offset 9, -24
 224 00c0 13040102 		addi	s0,sp,32
 225              		.cfi_def_cfa 8, 0
 226 00c4 93040500 		mv	s1,a0
 227              		.loc 2 46 1 is_stmt 0
 228 00c8 97000000 		call	_ZN9SemaphoreD1Ev
 228      E7800000 
 229              	.LVL15:
 230 00d0 13850400 		mv	a0,s1
 231 00d4 97000000 		call	_ZdlPv@plt
 231      E7800000 
 232              	.LVL16:
 233 00dc 83308101 		ld	ra,24(sp)
 234              		.cfi_restore 1
 235 00e0 03340101 		ld	s0,16(sp)
 236              		.cfi_restore 8
 237              		.cfi_def_cfa 2, 32
 238 00e4 83348100 		ld	s1,8(sp)
 239              		.cfi_restore 9
 240              	.LVL17:
 241 00e8 13010102 		addi	sp,sp,32
 242              		.cfi_def_cfa_offset 0
 243 00ec 67800000 		jr	ra
 244              		.cfi_endproc
 245              	.LFE64:
 247              		.align	2
 248              		.globl	_ZN6ThreadC2EPFvPvES0_
 250              	_ZN6ThreadC2EPFvPvES0_:
 251              	.LFB46:
   8:src/syscall_cpp.cpp ****     thread_create(&this->myHandle, body, arg);
 252              		.loc 2 8 1 is_stmt 1
 253              		.cfi_startproc
 254              	.LVL18:
 255 00f0 130101FF 		addi	sp,sp,-16
 256              		.cfi_def_cfa_offset 16
 257 00f4 23341100 		sd	ra,8(sp)
 258 00f8 23308100 		sd	s0,0(sp)
 259              		.cfi_offset 1, -8
 260              		.cfi_offset 8, -16
 261 00fc 13040101 		addi	s0,sp,16
 262              		.cfi_def_cfa 8, 0
GAS LISTING /tmp/ccKMrF8F.s 			page 7


 263              	.LBB4:
   8:src/syscall_cpp.cpp ****     thread_create(&this->myHandle, body, arg);
 264              		.loc 2 8 47 is_stmt 0
 265 0100 97070000 		lla	a5,_ZTV6Thread+16
 265      93870700 
 266 0108 2330F500 		sd	a5,0(a0)
   9:src/syscall_cpp.cpp **** }
 267              		.loc 2 9 5 is_stmt 1
   9:src/syscall_cpp.cpp **** }
 268              		.loc 2 9 18 is_stmt 0
 269 010c 13058500 		addi	a0,a0,8
 270              	.LVL19:
 271 0110 97000000 		call	_Z13thread_createPP3TCBPFvPvES2_@plt
 271      E7800000 
 272              	.LVL20:
 273              	.LBE4:
  10:src/syscall_cpp.cpp **** 
 274              		.loc 2 10 1
 275 0118 83308100 		ld	ra,8(sp)
 276              		.cfi_restore 1
 277 011c 03340100 		ld	s0,0(sp)
 278              		.cfi_restore 8
 279              		.cfi_def_cfa 2, 16
 280 0120 13010101 		addi	sp,sp,16
 281              		.cfi_def_cfa_offset 0
 282 0124 67800000 		jr	ra
 283              		.cfi_endproc
 284              	.LFE46:
 286              		.globl	_ZN6ThreadC1EPFvPvES0_
 287              		.set	_ZN6ThreadC1EPFvPvES0_,_ZN6ThreadC2EPFvPvES0_
 288              		.align	2
 289              		.globl	_ZN6Thread5startEv
 291              	_ZN6Thread5startEv:
 292              	.LFB52:
  18:src/syscall_cpp.cpp ****     //thread_create(&this->myHandle, thread_wrapper, this);
 293              		.loc 2 18 21 is_stmt 1
 294              		.cfi_startproc
 295              	.LVL21:
 296 0128 130101FF 		addi	sp,sp,-16
 297              		.cfi_def_cfa_offset 16
 298 012c 23341100 		sd	ra,8(sp)
 299 0130 23308100 		sd	s0,0(sp)
 300              		.cfi_offset 1, -8
 301              		.cfi_offset 8, -16
 302 0134 13040101 		addi	s0,sp,16
 303              		.cfi_def_cfa 8, 0
  20:src/syscall_cpp.cpp ****     return 0;
 304              		.loc 2 20 5
  20:src/syscall_cpp.cpp ****     return 0;
 305              		.loc 2 20 18 is_stmt 0
 306 0138 03368501 		ld	a2,24(a0)
 307 013c 83350501 		ld	a1,16(a0)
 308 0140 13058500 		addi	a0,a0,8
 309              	.LVL22:
 310 0144 97000000 		call	_Z13thread_createPP3TCBPFvPvES2_@plt
 310      E7800000 
 311              	.LVL23:
GAS LISTING /tmp/ccKMrF8F.s 			page 8


  21:src/syscall_cpp.cpp **** }
 312              		.loc 2 21 5 is_stmt 1
  22:src/syscall_cpp.cpp **** 
 313              		.loc 2 22 1 is_stmt 0
 314 014c 13050000 		li	a0,0
 315 0150 83308100 		ld	ra,8(sp)
 316              		.cfi_restore 1
 317 0154 03340100 		ld	s0,0(sp)
 318              		.cfi_restore 8
 319              		.cfi_def_cfa 2, 16
 320 0158 13010101 		addi	sp,sp,16
 321              		.cfi_def_cfa_offset 0
 322 015c 67800000 		jr	ra
 323              		.cfi_endproc
 324              	.LFE52:
 326              		.align	2
 327              		.globl	_ZN6Thread8dispatchEv
 329              	_ZN6Thread8dispatchEv:
 330              	.LFB53:
  24:src/syscall_cpp.cpp ****     thread_dispatch();
 331              		.loc 2 24 25 is_stmt 1
 332              		.cfi_startproc
 333 0160 130101FF 		addi	sp,sp,-16
 334              		.cfi_def_cfa_offset 16
 335 0164 23341100 		sd	ra,8(sp)
 336 0168 23308100 		sd	s0,0(sp)
 337              		.cfi_offset 1, -8
 338              		.cfi_offset 8, -16
 339 016c 13040101 		addi	s0,sp,16
 340              		.cfi_def_cfa 8, 0
  25:src/syscall_cpp.cpp **** }
 341              		.loc 2 25 5
  25:src/syscall_cpp.cpp **** }
 342              		.loc 2 25 20 is_stmt 0
 343 0170 97000000 		call	_Z15thread_dispatchv@plt
 343      E7800000 
 344              	.LVL24:
  26:src/syscall_cpp.cpp **** 
 345              		.loc 2 26 1
 346 0178 83308100 		ld	ra,8(sp)
 347              		.cfi_restore 1
 348 017c 03340100 		ld	s0,0(sp)
 349              		.cfi_restore 8
 350              		.cfi_def_cfa 2, 16
 351 0180 13010101 		addi	sp,sp,16
 352              		.cfi_def_cfa_offset 0
 353 0184 67800000 		jr	ra
 354              		.cfi_endproc
 355              	.LFE53:
 357              		.align	2
 358              		.globl	_ZN6Thread5sleepEm
 360              	_ZN6Thread5sleepEm:
 361              	.LFB54:
  28:src/syscall_cpp.cpp ****     return 0;
 362              		.loc 2 28 27 is_stmt 1
 363              		.cfi_startproc
 364 0188 130101FF 		addi	sp,sp,-16
GAS LISTING /tmp/ccKMrF8F.s 			page 9


 365              		.cfi_def_cfa_offset 16
 366 018c 23348100 		sd	s0,8(sp)
 367              		.cfi_offset 8, -8
 368 0190 13040101 		addi	s0,sp,16
 369              		.cfi_def_cfa 8, 0
  29:src/syscall_cpp.cpp **** }
 370              		.loc 2 29 5
  30:src/syscall_cpp.cpp **** 
 371              		.loc 2 30 1 is_stmt 0
 372 0194 13050000 		li	a0,0
 373 0198 03348100 		ld	s0,8(sp)
 374              		.cfi_restore 8
 375              		.cfi_def_cfa 2, 16
 376 019c 13010101 		addi	sp,sp,16
 377              		.cfi_def_cfa_offset 0
 378 01a0 67800000 		jr	ra
 379              		.cfi_endproc
 380              	.LFE54:
 382              		.align	2
 383              		.globl	_ZN6ThreadC2Ev
 385              	_ZN6ThreadC2Ev:
 386              	.LFB56:
  32:src/syscall_cpp.cpp ****     this->body = Thread::thread_wrapper;    //implicit conversion, the same as: this->body = &Threa
 387              		.loc 2 32 1 is_stmt 1
 388              		.cfi_startproc
 389              	.LVL25:
 390 01a4 130101FF 		addi	sp,sp,-16
 391              		.cfi_def_cfa_offset 16
 392 01a8 23348100 		sd	s0,8(sp)
 393              		.cfi_offset 8, -8
 394 01ac 13040101 		addi	s0,sp,16
 395              		.cfi_def_cfa 8, 0
 396              	.LBB5:
  32:src/syscall_cpp.cpp ****     this->body = Thread::thread_wrapper;    //implicit conversion, the same as: this->body = &Threa
 397              		.loc 2 32 16 is_stmt 0
 398 01b0 97070000 		lla	a5,_ZTV6Thread+16
 398      93870700 
 399 01b8 2330F500 		sd	a5,0(a0)
  33:src/syscall_cpp.cpp ****     this->arg = this;
 400              		.loc 2 33 5 is_stmt 1
  33:src/syscall_cpp.cpp ****     this->arg = this;
 401              		.loc 2 33 16 is_stmt 0
 402 01bc 97070000 		lla	a5,_ZN6Thread14thread_wrapperEPv
 402      93870700 
 403 01c4 2338F500 		sd	a5,16(a0)
  34:src/syscall_cpp.cpp **** }
 404              		.loc 2 34 5 is_stmt 1
  34:src/syscall_cpp.cpp **** }
 405              		.loc 2 34 15 is_stmt 0
 406 01c8 233CA500 		sd	a0,24(a0)
 407              	.LBE5:
  35:src/syscall_cpp.cpp **** 
 408              		.loc 2 35 1
 409 01cc 03348100 		ld	s0,8(sp)
 410              		.cfi_restore 8
 411              		.cfi_def_cfa 2, 16
 412 01d0 13010101 		addi	sp,sp,16
GAS LISTING /tmp/ccKMrF8F.s 			page 10


 413              		.cfi_def_cfa_offset 0
 414 01d4 67800000 		jr	ra
 415              		.cfi_endproc
 416              	.LFE56:
 418              		.globl	_ZN6ThreadC1Ev
 419              		.set	_ZN6ThreadC1Ev,_ZN6ThreadC2Ev
 420              		.align	2
 421              		.globl	_ZN9SemaphoreC2Ej
 423              	_ZN9SemaphoreC2Ej:
 424              	.LFB59:
  40:src/syscall_cpp.cpp ****     sem_open(&this->myHandle, init);
 425              		.loc 2 40 1 is_stmt 1
 426              		.cfi_startproc
 427              	.LVL26:
 428 01d8 130101FF 		addi	sp,sp,-16
 429              		.cfi_def_cfa_offset 16
 430 01dc 23341100 		sd	ra,8(sp)
 431 01e0 23308100 		sd	s0,0(sp)
 432              		.cfi_offset 1, -8
 433              		.cfi_offset 8, -16
 434 01e4 13040101 		addi	s0,sp,16
 435              		.cfi_def_cfa 8, 0
 436              	.LBB6:
  40:src/syscall_cpp.cpp ****     sem_open(&this->myHandle, init);
 437              		.loc 2 40 39 is_stmt 0
 438 01e8 97070000 		lla	a5,_ZTV9Semaphore+16
 438      93870700 
 439 01f0 2330F500 		sd	a5,0(a0)
  41:src/syscall_cpp.cpp **** }
 440              		.loc 2 41 5 is_stmt 1
  41:src/syscall_cpp.cpp **** }
 441              		.loc 2 41 13 is_stmt 0
 442 01f4 13058500 		addi	a0,a0,8
 443              	.LVL27:
 444 01f8 97000000 		call	_Z8sem_openPP11MySemaphorej@plt
 444      E7800000 
 445              	.LVL28:
 446              	.LBE6:
  42:src/syscall_cpp.cpp **** 
 447              		.loc 2 42 1
 448 0200 83308100 		ld	ra,8(sp)
 449              		.cfi_restore 1
 450 0204 03340100 		ld	s0,0(sp)
 451              		.cfi_restore 8
 452              		.cfi_def_cfa 2, 16
 453 0208 13010101 		addi	sp,sp,16
 454              		.cfi_def_cfa_offset 0
 455 020c 67800000 		jr	ra
 456              		.cfi_endproc
 457              	.LFE59:
 459              		.globl	_ZN9SemaphoreC1Ej
 460              		.set	_ZN9SemaphoreC1Ej,_ZN9SemaphoreC2Ej
 461              		.align	2
 462              		.globl	_ZN9Semaphore4waitEv
 464              	_ZN9Semaphore4waitEv:
 465              	.LFB65:
  47:src/syscall_cpp.cpp **** 
GAS LISTING /tmp/ccKMrF8F.s 			page 11


  48:src/syscall_cpp.cpp **** int Semaphore::wait() {
 466              		.loc 2 48 23 is_stmt 1
 467              		.cfi_startproc
 468              	.LVL29:
 469 0210 130101FF 		addi	sp,sp,-16
 470              		.cfi_def_cfa_offset 16
 471 0214 23341100 		sd	ra,8(sp)
 472 0218 23308100 		sd	s0,0(sp)
 473              		.cfi_offset 1, -8
 474              		.cfi_offset 8, -16
 475 021c 13040101 		addi	s0,sp,16
 476              		.cfi_def_cfa 8, 0
  49:src/syscall_cpp.cpp ****     sem_wait(this->myHandle);
 477              		.loc 2 49 5
 478              		.loc 2 49 13 is_stmt 0
 479 0220 03358500 		ld	a0,8(a0)
 480              	.LVL30:
 481 0224 97000000 		call	_Z8sem_waitP11MySemaphore@plt
 481      E7800000 
 482              	.LVL31:
  50:src/syscall_cpp.cpp ****     return 0;
 483              		.loc 2 50 5 is_stmt 1
  51:src/syscall_cpp.cpp **** }
 484              		.loc 2 51 1 is_stmt 0
 485 022c 13050000 		li	a0,0
 486 0230 83308100 		ld	ra,8(sp)
 487              		.cfi_restore 1
 488 0234 03340100 		ld	s0,0(sp)
 489              		.cfi_restore 8
 490              		.cfi_def_cfa 2, 16
 491 0238 13010101 		addi	sp,sp,16
 492              		.cfi_def_cfa_offset 0
 493 023c 67800000 		jr	ra
 494              		.cfi_endproc
 495              	.LFE65:
 497              		.align	2
 498              		.globl	_ZN9Semaphore6signalEv
 500              	_ZN9Semaphore6signalEv:
 501              	.LFB66:
  52:src/syscall_cpp.cpp **** 
  53:src/syscall_cpp.cpp **** int Semaphore::signal() {
 502              		.loc 2 53 25 is_stmt 1
 503              		.cfi_startproc
 504              	.LVL32:
 505 0240 130101FF 		addi	sp,sp,-16
 506              		.cfi_def_cfa_offset 16
 507 0244 23341100 		sd	ra,8(sp)
 508 0248 23308100 		sd	s0,0(sp)
 509              		.cfi_offset 1, -8
 510              		.cfi_offset 8, -16
 511 024c 13040101 		addi	s0,sp,16
 512              		.cfi_def_cfa 8, 0
  54:src/syscall_cpp.cpp ****     sem_signal(this->myHandle);
 513              		.loc 2 54 5
 514              		.loc 2 54 15 is_stmt 0
 515 0250 03358500 		ld	a0,8(a0)
 516              	.LVL33:
GAS LISTING /tmp/ccKMrF8F.s 			page 12


 517 0254 97000000 		call	_Z10sem_signalP11MySemaphore@plt
 517      E7800000 
 518              	.LVL34:
  55:src/syscall_cpp.cpp ****     return 0;
 519              		.loc 2 55 5 is_stmt 1
  56:src/syscall_cpp.cpp **** }
 520              		.loc 2 56 1 is_stmt 0
 521 025c 13050000 		li	a0,0
 522 0260 83308100 		ld	ra,8(sp)
 523              		.cfi_restore 1
 524 0264 03340100 		ld	s0,0(sp)
 525              		.cfi_restore 8
 526              		.cfi_def_cfa 2, 16
 527 0268 13010101 		addi	sp,sp,16
 528              		.cfi_def_cfa_offset 0
 529 026c 67800000 		jr	ra
 530              		.cfi_endproc
 531              	.LFE66:
 533              		.align	2
 534              		.globl	_ZN9Semaphore7tryWaitEv
 536              	_ZN9Semaphore7tryWaitEv:
 537              	.LFB67:
  57:src/syscall_cpp.cpp **** 
  58:src/syscall_cpp.cpp **** int Semaphore::tryWait() {
 538              		.loc 2 58 26 is_stmt 1
 539              		.cfi_startproc
 540              	.LVL35:
 541 0270 130101FF 		addi	sp,sp,-16
 542              		.cfi_def_cfa_offset 16
 543 0274 23341100 		sd	ra,8(sp)
 544 0278 23308100 		sd	s0,0(sp)
 545              		.cfi_offset 1, -8
 546              		.cfi_offset 8, -16
 547 027c 13040101 		addi	s0,sp,16
 548              		.cfi_def_cfa 8, 0
  59:src/syscall_cpp.cpp ****     sem_trywait(this->myHandle);
 549              		.loc 2 59 5
 550              		.loc 2 59 16 is_stmt 0
 551 0280 03358500 		ld	a0,8(a0)
 552              	.LVL36:
 553 0284 97000000 		call	_Z11sem_trywaitP11MySemaphore@plt
 553      E7800000 
 554              	.LVL37:
  60:src/syscall_cpp.cpp ****     return 0;
 555              		.loc 2 60 5 is_stmt 1
  61:src/syscall_cpp.cpp **** }
 556              		.loc 2 61 1 is_stmt 0
 557 028c 13050000 		li	a0,0
 558 0290 83308100 		ld	ra,8(sp)
 559              		.cfi_restore 1
 560 0294 03340100 		ld	s0,0(sp)
 561              		.cfi_restore 8
 562              		.cfi_def_cfa 2, 16
 563 0298 13010101 		addi	sp,sp,16
 564              		.cfi_def_cfa_offset 0
 565 029c 67800000 		jr	ra
 566              		.cfi_endproc
GAS LISTING /tmp/ccKMrF8F.s 			page 13


 567              	.LFE67:
 569              		.align	2
 570              		.globl	_ZN7Console4getcEv
 572              	_ZN7Console4getcEv:
 573              	.LFB68:
  62:src/syscall_cpp.cpp **** 
  63:src/syscall_cpp.cpp **** char Console::getc() {
 574              		.loc 2 63 22 is_stmt 1
 575              		.cfi_startproc
 576 02a0 130101FF 		addi	sp,sp,-16
 577              		.cfi_def_cfa_offset 16
 578 02a4 23341100 		sd	ra,8(sp)
 579 02a8 23308100 		sd	s0,0(sp)
 580              		.cfi_offset 1, -8
 581              		.cfi_offset 8, -16
 582 02ac 13040101 		addi	s0,sp,16
 583              		.cfi_def_cfa 8, 0
  64:src/syscall_cpp.cpp ****     ::getc();
 584              		.loc 2 64 5
 585              		.loc 2 64 11 is_stmt 0
 586 02b0 97000000 		call	_Z4getcv@plt
 586      E7800000 
 587              	.LVL38:
  65:src/syscall_cpp.cpp ****     return 0;
 588              		.loc 2 65 5 is_stmt 1
  66:src/syscall_cpp.cpp **** }
 589              		.loc 2 66 1 is_stmt 0
 590 02b8 13050000 		li	a0,0
 591 02bc 83308100 		ld	ra,8(sp)
 592              		.cfi_restore 1
 593 02c0 03340100 		ld	s0,0(sp)
 594              		.cfi_restore 8
 595              		.cfi_def_cfa 2, 16
 596 02c4 13010101 		addi	sp,sp,16
 597              		.cfi_def_cfa_offset 0
 598 02c8 67800000 		jr	ra
 599              		.cfi_endproc
 600              	.LFE68:
 602              		.align	2
 603              		.globl	_ZN7Console4putcEc
 605              	_ZN7Console4putcEc:
 606              	.LFB69:
  67:src/syscall_cpp.cpp **** 
  68:src/syscall_cpp.cpp **** void Console::putc(char c) {
 607              		.loc 2 68 28 is_stmt 1
 608              		.cfi_startproc
 609              	.LVL39:
 610 02cc 130101FF 		addi	sp,sp,-16
 611              		.cfi_def_cfa_offset 16
 612 02d0 23341100 		sd	ra,8(sp)
 613 02d4 23308100 		sd	s0,0(sp)
 614              		.cfi_offset 1, -8
 615              		.cfi_offset 8, -16
 616 02d8 13040101 		addi	s0,sp,16
 617              		.cfi_def_cfa 8, 0
  69:src/syscall_cpp.cpp ****     ::putc(c);
 618              		.loc 2 69 5
GAS LISTING /tmp/ccKMrF8F.s 			page 14


 619              		.loc 2 69 11 is_stmt 0
 620 02dc 97000000 		call	_Z4putcc@plt
 620      E7800000 
 621              	.LVL40:
  70:src/syscall_cpp.cpp **** }
 622              		.loc 2 70 1
 623 02e4 83308100 		ld	ra,8(sp)
 624              		.cfi_restore 1
 625 02e8 03340100 		ld	s0,0(sp)
 626              		.cfi_restore 8
 627              		.cfi_def_cfa 2, 16
 628 02ec 13010101 		addi	sp,sp,16
 629              		.cfi_def_cfa_offset 0
 630 02f0 67800000 		jr	ra
 631              		.cfi_endproc
 632              	.LFE69:
 634              		.weak	_ZTV6Thread
 635              		.section	.data.rel.ro.local._ZTV6Thread,"awG",@progbits,_ZTV6Thread,comdat
 636              		.align	3
 639              	_ZTV6Thread:
 640 0000 00000000 		.dword	0
 640      00000000 
 641 0008 00000000 		.dword	0
 641      00000000 
 642 0010 00000000 		.dword	_ZN6ThreadD1Ev
 642      00000000 
 643 0018 00000000 		.dword	_ZN6ThreadD0Ev
 643      00000000 
 644 0020 00000000 		.dword	_ZN6Thread3runEv
 644      00000000 
 645              		.weak	_ZTV9Semaphore
 646              		.section	.data.rel.ro.local._ZTV9Semaphore,"awG",@progbits,_ZTV9Semaphore,comdat
 647              		.align	3
 650              	_ZTV9Semaphore:
 651 0000 00000000 		.dword	0
 651      00000000 
 652 0008 00000000 		.dword	0
 652      00000000 
 653 0010 00000000 		.dword	_ZN9SemaphoreD1Ev
 653      00000000 
 654 0018 00000000 		.dword	_ZN9SemaphoreD0Ev
 654      00000000 
 655              		.text
 656              	.Letext0:
 657              		.file 3 "src/../h/../lib/hw.h"
 658              		.file 4 "src/../h/list.hpp"
 659              		.file 5 "src/../h/tcb.hpp"
 660              		.file 6 "src/../h/my_semaphore.hpp"
 661              		.file 7 "src/../h/syscall_c.hpp"
 4207              		.align	3
 4210              	DW.ref.__gxx_personality_v0:
 4211 0000 00000000 		.dword	__gxx_personality_v0
 4211      00000000 
 4212              		.ident	"GCC: (Ubuntu 9.4.0-1ubuntu1~20.04) 9.4.0"
 4213              		.section	.note.GNU-stack,"",@progbits
GAS LISTING /tmp/ccKMrF8F.s 			page 15

