GAS LISTING /tmp/cccPvPu4.s 			page 1


   1              		.file	"tcb.cpp"
   2              		.option pic
   3              		.option norelax
   4              		.text
   5              	.Ltext0:
   6              		.align	2
   7              		.globl	_ZN3TCB12createThreadEPFvPvEPmS0_
   9              	_ZN3TCB12createThreadEPFvPvEPmS0_:
  10              	.LFB60:
  11              		.file 1 "src/tcb.cpp"
   1:src/tcb.cpp   **** #include "../h/tcb.hpp"
   2:src/tcb.cpp   **** #include "../h/riscv.hpp"
   3:src/tcb.cpp   **** #include "../test/printing.hpp"
   4:src/tcb.cpp   **** 
   5:src/tcb.cpp   **** TCB *TCB::running = nullptr;
   6:src/tcb.cpp   **** 
   7:src/tcb.cpp   **** uint64 TCB::timeSliceCounter = 0;
   8:src/tcb.cpp   **** 
   9:src/tcb.cpp   **** TCB *TCB::createThread(Body body, uint64* stack, void* arg)
  10:src/tcb.cpp   **** {
  12              		.loc 1 10 1
  13              		.cfi_startproc
  14              		.cfi_personality 0x9b,DW.ref.__gxx_personality_v0
  15              		.cfi_lsda 0x1b,.LLSDA60
  16              	.LVL0:
  17 0000 130101FD 		addi	sp,sp,-48
  18              		.cfi_def_cfa_offset 48
  19 0004 23341102 		sd	ra,40(sp)
  20 0008 23308102 		sd	s0,32(sp)
  21 000c 233C9100 		sd	s1,24(sp)
  22 0010 23382101 		sd	s2,16(sp)
  23 0014 23343101 		sd	s3,8(sp)
  24 0018 23304101 		sd	s4,0(sp)
  25              		.cfi_offset 1, -8
  26              		.cfi_offset 8, -16
  27              		.cfi_offset 9, -24
  28              		.cfi_offset 18, -32
  29              		.cfi_offset 19, -40
  30              		.cfi_offset 20, -48
  31 001c 13040103 		addi	s0,sp,48
  32              		.cfi_def_cfa 8, 0
  33 0020 93090500 		mv	s3,a0
  34 0024 13890500 		mv	s2,a1
  35 0028 130A0600 		mv	s4,a2
  11:src/tcb.cpp   ****     return (TCB*)new TCB(body, TIME_SLICE, stack, arg);
  36              		.loc 1 11 5
  37              	.LVL1:
  38              	.LBB23:
  39              	.LBB24:
  40              		.file 2 "src/../h/tcb.hpp"
   1:src/../h/tcb.hpp **** //
   2:src/../h/tcb.hpp **** // Created by marko on 20.4.22..
   3:src/../h/tcb.hpp **** //
   4:src/../h/tcb.hpp **** 
   5:src/../h/tcb.hpp **** #ifndef OS1_VEZBE07_RISCV_CONTEXT_SWITCH_2_INTERRUPT_TCB_HPP
   6:src/../h/tcb.hpp **** #define OS1_VEZBE07_RISCV_CONTEXT_SWITCH_2_INTERRUPT_TCB_HPP
   7:src/../h/tcb.hpp **** 
GAS LISTING /tmp/cccPvPu4.s 			page 2


   8:src/../h/tcb.hpp **** #include "../lib/hw.h"
   9:src/../h/tcb.hpp **** #include "scheduler.hpp"
  10:src/../h/tcb.hpp **** #include "MemoryAllocator.hpp"
  11:src/../h/tcb.hpp **** 
  12:src/../h/tcb.hpp **** 
  13:src/../h/tcb.hpp **** // Thread Control Block
  14:src/../h/tcb.hpp **** class TCB
  15:src/../h/tcb.hpp **** {
  16:src/../h/tcb.hpp **** 
  17:src/../h/tcb.hpp **** 
  18:src/../h/tcb.hpp ****     void *operator new(size_t n)
  19:src/../h/tcb.hpp ****     {
  20:src/../h/tcb.hpp ****         //return __mem_alloc(n);
  21:src/../h/tcb.hpp ****         //printInteger(n);
  22:src/../h/tcb.hpp ****         return MemoryAllocator::mem_alloc(n);
  41              		.loc 2 22 9
  42              		.loc 2 22 42 is_stmt 0
  43 002c 13058003 		li	a0,56
  44              	.LVL2:
  45              	.LEHB0:
  46 0030 97000000 		call	_ZN15MemoryAllocator9mem_allocEm@plt
  46      E7800000 
  47              	.LVL3:
  48              	.LEHE0:
  49 0038 93040500 		mv	s1,a0
  50              	.LVL4:
  51              	.LBE24:
  52              	.LBE23:
  53              	.LBB25:
  54              	.LBB26:
  23:src/../h/tcb.hpp **** 
  24:src/../h/tcb.hpp ****     }
  25:src/../h/tcb.hpp **** 
  26:src/../h/tcb.hpp ****     void *operator new[](size_t n)
  27:src/../h/tcb.hpp ****     {
  28:src/../h/tcb.hpp ****         //return __mem_alloc(n);
  29:src/../h/tcb.hpp ****         //printStr("\nSize passed to the new operator");
  30:src/../h/tcb.hpp ****         //printInteger(n);
  31:src/../h/tcb.hpp ****         return MemoryAllocator::mem_alloc(n);
  32:src/../h/tcb.hpp **** 
  33:src/../h/tcb.hpp ****     }
  34:src/../h/tcb.hpp ****     void operator delete(void *p)
  35:src/../h/tcb.hpp ****     {
  36:src/../h/tcb.hpp ****        // mem_free(p);
  37:src/../h/tcb.hpp ****         MemoryAllocator::mem_free(p);
  38:src/../h/tcb.hpp ****     }
  39:src/../h/tcb.hpp **** 
  40:src/../h/tcb.hpp ****     void operator delete[](void *p)
  41:src/../h/tcb.hpp ****     {
  42:src/../h/tcb.hpp ****         //mem_free(p);
  43:src/../h/tcb.hpp ****         MemoryAllocator::mem_free(p);
  44:src/../h/tcb.hpp ****     }
  45:src/../h/tcb.hpp **** 
  46:src/../h/tcb.hpp **** 
  47:src/../h/tcb.hpp **** public:
  48:src/../h/tcb.hpp ****     ~TCB() { delete[] stack; }
  49:src/../h/tcb.hpp **** 
GAS LISTING /tmp/cccPvPu4.s 			page 3


  50:src/../h/tcb.hpp ****     bool isFinished() const { return finished; }
  51:src/../h/tcb.hpp ****     void setFinished(bool value) { finished = value; }
  52:src/../h/tcb.hpp **** 
  53:src/../h/tcb.hpp ****     bool isBlocked() const { return blocked; }
  54:src/../h/tcb.hpp ****     void setBlocked(bool value) { blocked = value; }
  55:src/../h/tcb.hpp **** 
  56:src/../h/tcb.hpp ****     uint64 getTimeSlice() const { return timeSlice; }
  57:src/../h/tcb.hpp ****     int time_sleep() { return 0; }
  58:src/../h/tcb.hpp **** 
  59:src/../h/tcb.hpp ****     using Body = void (*)(void*);
  60:src/../h/tcb.hpp **** 
  61:src/../h/tcb.hpp ****     static TCB *createThread(Body body, uint64* stack, void* arg);
  62:src/../h/tcb.hpp ****     static TCB *createThread(Body body, void* arg);
  63:src/../h/tcb.hpp **** 
  64:src/../h/tcb.hpp ****     static int killThread();
  65:src/../h/tcb.hpp **** 
  66:src/../h/tcb.hpp ****     static void yield();
  67:src/../h/tcb.hpp **** 
  68:src/../h/tcb.hpp ****     static TCB *running;
  69:src/../h/tcb.hpp **** 
  70:src/../h/tcb.hpp **** private:
  71:src/../h/tcb.hpp ****     TCB() = default;
  72:src/../h/tcb.hpp ****     TCB(Body body, uint64 timeSlice, uint64* stack, void* arg) :
  73:src/../h/tcb.hpp ****             body(body),
  74:src/../h/tcb.hpp ****             //stack(body != nullptr ? new uint64[STACK_SIZE] : nullptr),
  75:src/../h/tcb.hpp ****             stack((uint8*) stack),
  76:src/../h/tcb.hpp ****             context({(uint64) &threadWrapper,
  77:src/../h/tcb.hpp ****                      stack != nullptr ? ((uint64) &stack[DEFAULT_STACK_SIZE  / 8]) : 0
  78:src/../h/tcb.hpp ****                     }),
  79:src/../h/tcb.hpp ****             timeSlice(timeSlice),
  80:src/../h/tcb.hpp ****             finished(false),
  81:src/../h/tcb.hpp ****             blocked(false),
  82:src/../h/tcb.hpp ****             arg(arg)
  55              		.loc 2 82 20
  56 003c 23303501 		sd	s3,0(a0)
  57 0040 23342501 		sd	s2,8(a0)
  58 0044 97070000 		lla	a5,_ZN3TCB13threadWrapperEv
  58      93870700 
  59 004c 2338F500 		sd	a5,16(a0)
  77:src/../h/tcb.hpp ****                     }),
  60              		.loc 2 77 39
  61 0050 630C0902 		beqz	s2,.L5
  77:src/../h/tcb.hpp ****                     }),
  62              		.loc 2 77 51
  63 0054 B7150000 		li	a1,4096
  64 0058 3309B900 		add	s2,s2,a1
  65              	.LVL5:
  66              	.L2:
  67              		.loc 2 82 20
  68 005c 23BC2401 		sd	s2,24(s1)
  69 0060 93072000 		li	a5,2
  70 0064 23B0F402 		sd	a5,32(s1)
  71 0068 23840402 		sb	zero,40(s1)
  72 006c A3840402 		sb	zero,41(s1)
  73 0070 23B84403 		sd	s4,48(s1)
  83:src/../h/tcb.hpp ****     {
  84:src/../h/tcb.hpp ****         if (body != nullptr) {
GAS LISTING /tmp/cccPvPu4.s 			page 4


  74              		.loc 2 84 9 is_stmt 1
  75 0074 638C0902 		beqz	s3,.L1
  85:src/../h/tcb.hpp ****             Scheduler::put(this);
  76              		.loc 2 85 13
  77              		.loc 2 85 27 is_stmt 0
  78 0078 13850400 		mv	a0,s1
  79              	.LEHB1:
  80 007c 97000000 		call	_ZN9Scheduler3putEP3TCB@plt
  80      E7800000 
  81              	.LVL6:
  82              	.LEHE1:
  83 0084 6F008002 		j	.L1
  84              	.LVL7:
  85              	.L5:
  77:src/../h/tcb.hpp ****                     }),
  86              		.loc 2 77 39
  87 0088 13090000 		li	s2,0
  88              	.LVL8:
  89 008c 6FF01FFD 		j	.L2
  90              	.LVL9:
  91              	.L6:
  92 0090 13090500 		mv	s2,a0
  93              	.LVL10:
  94              	.LBE26:
  95              	.LBE25:
  96              	.LBB27:
  97              	.LBB28:
  37:src/../h/tcb.hpp ****     }
  98              		.loc 2 37 9 is_stmt 1
  37:src/../h/tcb.hpp ****     }
  99              		.loc 2 37 34 is_stmt 0
 100 0094 13850400 		mv	a0,s1
 101 0098 97000000 		call	_ZN15MemoryAllocator8mem_freeEPv@plt
 101      E7800000 
 102              	.LVL11:
 103 00a0 13050900 		mv	a0,s2
 104              	.LEHB2:
 105 00a4 97000000 		call	_Unwind_Resume@plt
 105      E7800000 
 106              	.LVL12:
 107              	.LEHE2:
 108              	.L1:
 109              	.LBE28:
 110              	.LBE27:
  12:src/tcb.cpp   **** 
  13:src/tcb.cpp   ****     //return (TCB*)new TCB();
  14:src/tcb.cpp   **** }
 111              		.loc 1 14 1
 112 00ac 13850400 		mv	a0,s1
 113 00b0 83308102 		ld	ra,40(sp)
 114              		.cfi_restore 1
 115 00b4 03340102 		ld	s0,32(sp)
 116              		.cfi_restore 8
 117              		.cfi_def_cfa 2, 48
 118 00b8 83348101 		ld	s1,24(sp)
 119              		.cfi_restore 9
 120              	.LVL13:
GAS LISTING /tmp/cccPvPu4.s 			page 5


 121 00bc 03390101 		ld	s2,16(sp)
 122              		.cfi_restore 18
 123 00c0 83398100 		ld	s3,8(sp)
 124              		.cfi_restore 19
 125              	.LVL14:
 126 00c4 033A0100 		ld	s4,0(sp)
 127              		.cfi_restore 20
 128              	.LVL15:
 129 00c8 13010103 		addi	sp,sp,48
 130              		.cfi_def_cfa_offset 0
 131 00cc 67800000 		jr	ra
 132              		.cfi_endproc
 133              	.LFE60:
 134              		.globl	__gxx_personality_v0
 135              		.section	.gcc_except_table,"a",@progbits
 136              	.LLSDA60:
 137 0000 FF       		.byte	0xff
 138 0001 FF       		.byte	0xff
 139 0002 03       		.byte	0x3
 140 0003 27       		.byte	0x27
 141 0004 00000000 		.4byte	.LEHB0-.LFB60
 142 0008 00000000 		.4byte	.LEHE0-.LEHB0
 143 000c 00000000 		.4byte	0
 144 0010 00       		.byte	0
 145 0011 00000000 		.4byte	.LEHB1-.LFB60
 146 0015 00000000 		.4byte	.LEHE1-.LEHB1
 147 0019 00000000 		.4byte	.L6-.LFB60
 148 001d 00       		.byte	0
 149 001e 00000000 		.4byte	.LEHB2-.LFB60
 150 0022 00000000 		.4byte	.LEHE2-.LEHB2
 151 0026 00000000 		.4byte	0
 152 002a 00       		.byte	0
 153              		.text
 155              		.align	2
 156              		.globl	_ZN3TCB12createThreadEPFvPvES0_
 158              	_ZN3TCB12createThreadEPFvPvES0_:
 159              	.LFB61:
  15:src/tcb.cpp   **** TCB *TCB::createThread(Body body, void* arg)
  16:src/tcb.cpp   **** {
 160              		.loc 1 16 1 is_stmt 1
 161              		.cfi_startproc
 162              		.cfi_personality 0x9b,DW.ref.__gxx_personality_v0
 163              		.cfi_lsda 0x1b,.LLSDA61
 164              	.LVL16:
 165 00d0 130101FD 		addi	sp,sp,-48
 166              		.cfi_def_cfa_offset 48
 167 00d4 23341102 		sd	ra,40(sp)
 168 00d8 23308102 		sd	s0,32(sp)
 169 00dc 233C9100 		sd	s1,24(sp)
 170 00e0 23382101 		sd	s2,16(sp)
 171 00e4 23343101 		sd	s3,8(sp)
 172              		.cfi_offset 1, -8
 173              		.cfi_offset 8, -16
 174              		.cfi_offset 9, -24
 175              		.cfi_offset 18, -32
 176              		.cfi_offset 19, -40
 177 00e8 13040103 		addi	s0,sp,48
GAS LISTING /tmp/cccPvPu4.s 			page 6


 178              		.cfi_def_cfa 8, 0
 179 00ec 13090500 		mv	s2,a0
 180 00f0 93890500 		mv	s3,a1
  17:src/tcb.cpp   ****     return (TCB*)new TCB(body, TIME_SLICE, arg);
 181              		.loc 1 17 5
 182              	.LVL17:
 183              	.LBB36:
 184              	.LBB37:
  22:src/../h/tcb.hpp **** 
 185              		.loc 2 22 9
  22:src/../h/tcb.hpp **** 
 186              		.loc 2 22 42 is_stmt 0
 187 00f4 13058003 		li	a0,56
 188              	.LVL18:
 189              	.LEHB3:
 190 00f8 97000000 		call	_ZN15MemoryAllocator9mem_allocEm@plt
 190      E7800000 
 191              	.LVL19:
 192              	.LEHE3:
 193 0100 93040500 		mv	s1,a0
 194              	.LVL20:
 195              	.LBE37:
 196              	.LBE36:
 197              	.LBB38:
 198              	.LBB39:
  86:src/../h/tcb.hpp **** //            printString("Put in Scheduler from constructor of TCB");
  87:src/../h/tcb.hpp ****         }
  88:src/../h/tcb.hpp ****         // Debug prints
  89:src/../h/tcb.hpp **** //        printString("\nTCB Constructor 1:");
  90:src/../h/tcb.hpp **** //        printString("\nBody: "); printInt((uint64)body);
  91:src/../h/tcb.hpp **** //        printString("\nStack: "); printInt((uint64)stack);
  92:src/../h/tcb.hpp **** //        printString("\nContext.ra: "); printInt(context.ra);
  93:src/../h/tcb.hpp **** //        printString("\nContext.sp: "); printInt(context.sp);
  94:src/../h/tcb.hpp **** //        printString("\nTimeSlice: "); printInt(timeSlice);
  95:src/../h/tcb.hpp **** //        printString("\nFinished: "); printInt(finished);
  96:src/../h/tcb.hpp **** //        printString("\nArg: "); printInt((uint64)arg);
  97:src/../h/tcb.hpp **** 
  98:src/../h/tcb.hpp ****     }
  99:src/../h/tcb.hpp **** 
 100:src/../h/tcb.hpp ****     TCB(Body body, uint64 timeSlice, void* arg) :
 101:src/../h/tcb.hpp ****             body(body),
 102:src/../h/tcb.hpp ****             stack(body != nullptr ? new uint8[STACK_SIZE] : nullptr),
 103:src/../h/tcb.hpp ****             context({(uint64) &threadWrapper,
 104:src/../h/tcb.hpp ****                      stack != nullptr ? ((uint64) &stack[STACK_SIZE]) : 0
 105:src/../h/tcb.hpp ****                     }),
 106:src/../h/tcb.hpp ****             timeSlice(timeSlice),
 107:src/../h/tcb.hpp ****             finished(false),
 108:src/../h/tcb.hpp ****             blocked(false),
 109:src/../h/tcb.hpp ****             arg(arg)
 199              		.loc 2 109 20
 200 0104 23302501 		sd	s2,0(a0)
 102:src/../h/tcb.hpp ****             context({(uint64) &threadWrapper,
 201              		.loc 2 102 35
 202 0108 630A0900 		beqz	s2,.L13
 102:src/../h/tcb.hpp ****             context({(uint64) &threadWrapper,
 203              		.loc 2 102 57
 204 010c 13050040 		li	a0,1024
GAS LISTING /tmp/cccPvPu4.s 			page 7


 205              	.LEHB4:
 206 0110 97000000 		call	_Znam@plt
 206      E7800000 
 207              	.LVL21:
 208 0118 6F008000 		j	.L9
 209              	.L13:
 102:src/../h/tcb.hpp ****             context({(uint64) &threadWrapper,
 210              		.loc 2 102 35
 211 011c 13050000 		li	a0,0
 212              	.L9:
 213              		.loc 2 109 20
 214 0120 23B4A400 		sd	a0,8(s1)
 215 0124 97070000 		lla	a5,_ZN3TCB13threadWrapperEv
 215      93870700 
 216 012c 23B8F400 		sd	a5,16(s1)
 104:src/../h/tcb.hpp ****                     }),
 217              		.loc 2 104 39
 218 0130 630A0502 		beqz	a0,.L14
 104:src/../h/tcb.hpp ****                     }),
 219              		.loc 2 104 51
 220 0134 93070540 		addi	a5,a0,1024
 221              	.L10:
 222              		.loc 2 109 20
 223 0138 23BCF400 		sd	a5,24(s1)
 224 013c 93072000 		li	a5,2
 225 0140 23B0F402 		sd	a5,32(s1)
 226 0144 23840402 		sb	zero,40(s1)
 227 0148 A3840402 		sb	zero,41(s1)
 228 014c 23B83403 		sd	s3,48(s1)
 110:src/../h/tcb.hpp ****     {
 111:src/../h/tcb.hpp ****         if (body != nullptr) {
 229              		.loc 2 111 9 is_stmt 1
 230 0150 630C0902 		beqz	s2,.L8
 112:src/../h/tcb.hpp ****             Scheduler::put(this);
 231              		.loc 2 112 13
 232              		.loc 2 112 27 is_stmt 0
 233 0154 13850400 		mv	a0,s1
 234 0158 97000000 		call	_ZN9Scheduler3putEP3TCB@plt
 234      E7800000 
 235              	.LVL22:
 236              	.LEHE4:
 237 0160 6F008002 		j	.L8
 238              	.L14:
 104:src/../h/tcb.hpp ****                     }),
 239              		.loc 2 104 39
 240 0164 93070000 		li	a5,0
 241 0168 6FF01FFD 		j	.L10
 242              	.L15:
 243 016c 13090500 		mv	s2,a0
 244              	.LVL23:
 245              	.LBE39:
 246              	.LBE38:
 247              	.LBB40:
 248              	.LBB41:
  37:src/../h/tcb.hpp ****     }
 249              		.loc 2 37 9 is_stmt 1
  37:src/../h/tcb.hpp ****     }
GAS LISTING /tmp/cccPvPu4.s 			page 8


 250              		.loc 2 37 34 is_stmt 0
 251 0170 13850400 		mv	a0,s1
 252 0174 97000000 		call	_ZN15MemoryAllocator8mem_freeEPv@plt
 252      E7800000 
 253              	.LVL24:
 254 017c 13050900 		mv	a0,s2
 255              	.LEHB5:
 256 0180 97000000 		call	_Unwind_Resume@plt
 256      E7800000 
 257              	.LVL25:
 258              	.LEHE5:
 259              	.L8:
 260              	.LBE41:
 261              	.LBE40:
  18:src/tcb.cpp   **** 
  19:src/tcb.cpp   ****     //return (TCB*)new TCB();
  20:src/tcb.cpp   **** }
 262              		.loc 1 20 1
 263 0188 13850400 		mv	a0,s1
 264 018c 83308102 		ld	ra,40(sp)
 265              		.cfi_restore 1
 266 0190 03340102 		ld	s0,32(sp)
 267              		.cfi_restore 8
 268              		.cfi_def_cfa 2, 48
 269 0194 83348101 		ld	s1,24(sp)
 270              		.cfi_restore 9
 271              	.LVL26:
 272 0198 03390101 		ld	s2,16(sp)
 273              		.cfi_restore 18
 274              	.LVL27:
 275 019c 83398100 		ld	s3,8(sp)
 276              		.cfi_restore 19
 277              	.LVL28:
 278 01a0 13010103 		addi	sp,sp,48
 279              		.cfi_def_cfa_offset 0
 280 01a4 67800000 		jr	ra
 281              		.cfi_endproc
 282              	.LFE61:
 283              		.section	.gcc_except_table
 284              	.LLSDA61:
 285 002b FF       		.byte	0xff
 286 002c FF       		.byte	0xff
 287 002d 03       		.byte	0x3
 288 002e 27       		.byte	0x27
 289 002f 00000000 		.4byte	.LEHB3-.LFB61
 290 0033 00000000 		.4byte	.LEHE3-.LEHB3
 291 0037 00000000 		.4byte	0
 292 003b 00       		.byte	0
 293 003c 00000000 		.4byte	.LEHB4-.LFB61
 294 0040 00000000 		.4byte	.LEHE4-.LEHB4
 295 0044 00000000 		.4byte	.L15-.LFB61
 296 0048 00       		.byte	0
 297 0049 00000000 		.4byte	.LEHB5-.LFB61
 298 004d 00000000 		.4byte	.LEHE5-.LEHB5
 299 0051 00000000 		.4byte	0
 300 0055 00       		.byte	0
 301              		.text
GAS LISTING /tmp/cccPvPu4.s 			page 9


 303              		.align	2
 304              		.globl	_ZN3TCB5yieldEv
 306              	_ZN3TCB5yieldEv:
 307              	.LFB62:
  21:src/tcb.cpp   **** 
  22:src/tcb.cpp   **** 
  23:src/tcb.cpp   **** void TCB::yield()
  24:src/tcb.cpp   **** {
 308              		.loc 1 24 1 is_stmt 1
 309              		.cfi_startproc
 310 01a8 130101FF 		addi	sp,sp,-16
 311              		.cfi_def_cfa_offset 16
 312 01ac 23348100 		sd	s0,8(sp)
 313              		.cfi_offset 8, -8
 314 01b0 13040101 		addi	s0,sp,16
 315              		.cfi_def_cfa 8, 0
  25:src/tcb.cpp   ****     int trapCode = 0x13;
 316              		.loc 1 25 5
 317              	.LVL29:
  26:src/tcb.cpp   ****     __asm__ volatile("mv a0, %[trapCode]" : : [trapCode] "r"(trapCode));
 318              		.loc 1 26 5
 319              		.loc 1 26 72 is_stmt 0
 320 01b4 93073001 		li	a5,19
 321              	#APP
 322              	# 26 "src/tcb.cpp" 1
  27              	    __asm__ volatile ("ecall");
 323              		mv a0, a5
 324              	# 0 "" 2
 325              		.loc 1 27 5 is_stmt 1
 326              		.loc 1 27 31 is_stmt 0
 327              	# 27 "src/tcb.cpp" 1
  28              	}
 328              		ecall
 329              	# 0 "" 2
 330              		.loc 1 28 1
 331              	#NO_APP
 332 01c0 03348100 		ld	s0,8(sp)
 333              		.cfi_restore 8
 334              		.cfi_def_cfa 2, 16
 335 01c4 13010101 		addi	sp,sp,16
 336              		.cfi_def_cfa_offset 0
 337 01c8 67800000 		jr	ra
 338              		.cfi_endproc
 339              	.LFE62:
 341              		.align	2
 342              		.globl	_ZN3TCB13threadWrapperEv
 344              	_ZN3TCB13threadWrapperEv:
 345              	.LFB64:
  29:src/tcb.cpp   **** 
  30:src/tcb.cpp   **** void TCB::dispatch()
  31:src/tcb.cpp   **** {
  32:src/tcb.cpp   ****     TCB *old = running;
  33:src/tcb.cpp   ****     if (!old->isFinished() && !old->isBlocked()) {
  34:src/tcb.cpp   ****         Scheduler::put(old);
  35:src/tcb.cpp   ****     }
  36:src/tcb.cpp   ****     running = Scheduler::get();
  37:src/tcb.cpp   **** //    printString("in dispatch after get from Scheduler");
GAS LISTING /tmp/cccPvPu4.s 			page 10


  38:src/tcb.cpp   ****     TCB::contextSwitch(&old->context, &running->context);
  39:src/tcb.cpp   **** }
  40:src/tcb.cpp   **** 
  41:src/tcb.cpp   **** void TCB::threadWrapper()
  42:src/tcb.cpp   **** {
 346              		.loc 1 42 1 is_stmt 1
 347              		.cfi_startproc
 348 01cc 130101FE 		addi	sp,sp,-32
 349              		.cfi_def_cfa_offset 32
 350 01d0 233C1100 		sd	ra,24(sp)
 351 01d4 23388100 		sd	s0,16(sp)
 352 01d8 23349100 		sd	s1,8(sp)
 353              		.cfi_offset 1, -8
 354              		.cfi_offset 8, -16
 355              		.cfi_offset 9, -24
 356 01dc 13040102 		addi	s0,sp,32
 357              		.cfi_def_cfa 8, 0
  43:src/tcb.cpp   ****     Riscv::popSppSpie();
 358              		.loc 1 43 5
 359              		.loc 1 43 22 is_stmt 0
 360 01e0 97000000 		call	_ZN5Riscv10popSppSpieEv@plt
 360      E7800000 
 361              	.LVL30:
  44:src/tcb.cpp   ****     running->body(running->arg);
 362              		.loc 1 44 5 is_stmt 1
 363              		.loc 1 44 14 is_stmt 0
 364 01e8 97040000 		lla	s1,.LANCHOR0
 364      93840400 
 365 01f0 83B70400 		ld	a5,0(s1)
 366 01f4 03B70700 		ld	a4,0(a5)
 367              		.loc 1 44 18
 368 01f8 03B50703 		ld	a0,48(a5)
 369 01fc E7000700 		jalr	a4
 370              	.LVL31:
  45:src/tcb.cpp   ****     running->setFinished(true);
 371              		.loc 1 45 5 is_stmt 1
 372              		.loc 1 45 25 is_stmt 0
 373 0200 83B70400 		ld	a5,0(s1)
 374              	.LVL32:
 375              	.LBB42:
 376              	.LBB43:
  51:src/../h/tcb.hpp **** 
 377              		.loc 2 51 36 is_stmt 1
  51:src/../h/tcb.hpp **** 
 378              		.loc 2 51 45 is_stmt 0
 379 0204 13071000 		li	a4,1
 380 0208 2384E702 		sb	a4,40(a5)
 381              	.LVL33:
 382              	.LBE43:
 383              	.LBE42:
  46:src/tcb.cpp   ****     TCB::yield();
 384              		.loc 1 46 5 is_stmt 1
 385              		.loc 1 46 15 is_stmt 0
 386 020c 97000000 		call	_ZN3TCB5yieldEv
 386      E7800000 
 387              	.LVL34:
  47:src/tcb.cpp   **** }
GAS LISTING /tmp/cccPvPu4.s 			page 11


 388              		.loc 1 47 1
 389 0214 83308101 		ld	ra,24(sp)
 390              		.cfi_restore 1
 391 0218 03340101 		ld	s0,16(sp)
 392              		.cfi_restore 8
 393              		.cfi_def_cfa 2, 32
 394 021c 83348100 		ld	s1,8(sp)
 395              		.cfi_restore 9
 396 0220 13010102 		addi	sp,sp,32
 397              		.cfi_def_cfa_offset 0
 398 0224 67800000 		jr	ra
 399              		.cfi_endproc
 400              	.LFE64:
 402              		.align	2
 403              		.globl	_ZN3TCB8dispatchEv
 405              	_ZN3TCB8dispatchEv:
 406              	.LFB63:
  31:src/tcb.cpp   ****     TCB *old = running;
 407              		.loc 1 31 1 is_stmt 1
 408              		.cfi_startproc
 409 0228 130101FE 		addi	sp,sp,-32
 410              		.cfi_def_cfa_offset 32
 411 022c 233C1100 		sd	ra,24(sp)
 412 0230 23388100 		sd	s0,16(sp)
 413 0234 23349100 		sd	s1,8(sp)
 414              		.cfi_offset 1, -8
 415              		.cfi_offset 8, -16
 416              		.cfi_offset 9, -24
 417 0238 13040102 		addi	s0,sp,32
 418              		.cfi_def_cfa 8, 0
  32:src/tcb.cpp   ****     if (!old->isFinished() && !old->isBlocked()) {
 419              		.loc 1 32 5
  32:src/tcb.cpp   ****     if (!old->isFinished() && !old->isBlocked()) {
 420              		.loc 1 32 10 is_stmt 0
 421 023c 97040000 		ld	s1,.LANCHOR0
 421      83B40400 
 422              	.LVL35:
  33:src/tcb.cpp   ****         Scheduler::put(old);
 423              		.loc 1 33 5 is_stmt 1
 424              	.LBB44:
 425              	.LBB45:
  50:src/../h/tcb.hpp ****     void setFinished(bool value) { finished = value; }
 426              		.loc 2 50 31
  50:src/../h/tcb.hpp ****     void setFinished(bool value) { finished = value; }
 427              		.loc 2 50 38 is_stmt 0
 428 0244 83C78402 		lbu	a5,40(s1)
 429              	.LVL36:
 430              	.LBE45:
 431              	.LBE44:
  33:src/tcb.cpp   ****         Scheduler::put(old);
 432              		.loc 1 33 28
 433 0248 63960700 		bnez	a5,.L22
 434              	.LVL37:
 435              	.LBB46:
 436              	.LBB47:
  53:src/../h/tcb.hpp ****     void setBlocked(bool value) { blocked = value; }
 437              		.loc 2 53 30 is_stmt 1
GAS LISTING /tmp/cccPvPu4.s 			page 12


  53:src/../h/tcb.hpp ****     void setBlocked(bool value) { blocked = value; }
 438              		.loc 2 53 37 is_stmt 0
 439 024c 83C79402 		lbu	a5,41(s1)
 440              	.LVL38:
 441              	.LBE47:
 442              	.LBE46:
  33:src/tcb.cpp   ****         Scheduler::put(old);
 443              		.loc 1 33 28
 444 0250 638C0702 		beqz	a5,.L24
 445              	.L22:
  36:src/tcb.cpp   **** //    printString("in dispatch after get from Scheduler");
 446              		.loc 1 36 5 is_stmt 1
  36:src/tcb.cpp   **** //    printString("in dispatch after get from Scheduler");
 447              		.loc 1 36 29 is_stmt 0
 448 0254 97000000 		call	_ZN9Scheduler3getEv@plt
 448      E7800000 
 449              	.LVL39:
  36:src/tcb.cpp   **** //    printString("in dispatch after get from Scheduler");
 450              		.loc 1 36 13
 451 025c 97070000 		sd	a0,.LANCHOR0,a5
 451      23B0A700 
  38:src/tcb.cpp   **** }
 452              		.loc 1 38 5 is_stmt 1
  38:src/tcb.cpp   **** }
 453              		.loc 1 38 23 is_stmt 0
 454 0264 93050501 		addi	a1,a0,16
 455 0268 13850401 		addi	a0,s1,16
 456 026c 97000000 		call	_ZN3TCB13contextSwitchEPNS_7ContextES1_@plt
 456      E7800000 
 457              	.LVL40:
  39:src/tcb.cpp   **** 
 458              		.loc 1 39 1
 459 0274 83308101 		ld	ra,24(sp)
 460              		.cfi_remember_state
 461              		.cfi_restore 1
 462 0278 03340101 		ld	s0,16(sp)
 463              		.cfi_restore 8
 464              		.cfi_def_cfa 2, 32
 465 027c 83348100 		ld	s1,8(sp)
 466              		.cfi_restore 9
 467              	.LVL41:
 468 0280 13010102 		addi	sp,sp,32
 469              		.cfi_def_cfa_offset 0
 470 0284 67800000 		jr	ra
 471              	.LVL42:
 472              	.L24:
 473              		.cfi_restore_state
  34:src/tcb.cpp   ****     }
 474              		.loc 1 34 9 is_stmt 1
  34:src/tcb.cpp   ****     }
 475              		.loc 1 34 23 is_stmt 0
 476 0288 13850400 		mv	a0,s1
 477 028c 97000000 		call	_ZN9Scheduler3putEP3TCB@plt
 477      E7800000 
 478              	.LVL43:
 479 0294 6FF01FFC 		j	.L22
 480              		.cfi_endproc
GAS LISTING /tmp/cccPvPu4.s 			page 13


 481              	.LFE63:
 483              		.align	2
 484              		.globl	_ZN3TCB10killThreadEv
 486              	_ZN3TCB10killThreadEv:
 487              	.LFB65:
  48:src/tcb.cpp   **** 
  49:src/tcb.cpp   **** int TCB::killThread() {
 488              		.loc 1 49 23 is_stmt 1
 489              		.cfi_startproc
 490 0298 130101FF 		addi	sp,sp,-16
 491              		.cfi_def_cfa_offset 16
 492 029c 23341100 		sd	ra,8(sp)
 493 02a0 23308100 		sd	s0,0(sp)
 494              		.cfi_offset 1, -8
 495              		.cfi_offset 8, -16
 496 02a4 13040101 		addi	s0,sp,16
 497              		.cfi_def_cfa 8, 0
  50:src/tcb.cpp   ****     TCB::running->setFinished(true);
 498              		.loc 1 50 5
 499              	.LVL44:
 500              	.LBB48:
 501              	.LBB49:
  51:src/../h/tcb.hpp **** 
 502              		.loc 2 51 36
  51:src/../h/tcb.hpp **** 
 503              		.loc 2 51 45 is_stmt 0
 504 02a8 97070000 		ld	a5,.LANCHOR0
 504      83B70700 
 505 02b0 13071000 		li	a4,1
 506 02b4 2384E702 		sb	a4,40(a5)
 507              	.LVL45:
 508              	.LBE49:
 509              	.LBE48:
  51:src/tcb.cpp   ****     if (!running->isFinished()) return -1;
 510              		.loc 1 51 5 is_stmt 1
  50:src/../h/tcb.hpp ****     void setFinished(bool value) { finished = value; }
 511              		.loc 2 50 31
  52:src/tcb.cpp   ****     //TCB::dispatch();
  53:src/tcb.cpp   ****     TCB::yield();
 512              		.loc 1 53 5
 513              		.loc 1 53 15 is_stmt 0
 514 02b8 97000000 		call	_ZN3TCB5yieldEv
 514      E7800000 
 515              	.LVL46:
  54:src/tcb.cpp   ****     //freeing space
  55:src/tcb.cpp   ****     //int status =  MemoryAllocator::mem_free(TCB::running);
  56:src/tcb.cpp   ****     //TCB::running = nullptr;
  57:src/tcb.cpp   ****     return 0;
 516              		.loc 1 57 5 is_stmt 1
  58:src/tcb.cpp   **** }
 517              		.loc 1 58 1 is_stmt 0
 518 02c0 13050000 		li	a0,0
 519 02c4 83308100 		ld	ra,8(sp)
 520              		.cfi_restore 1
 521 02c8 03340100 		ld	s0,0(sp)
 522              		.cfi_restore 8
 523              		.cfi_def_cfa 2, 16
GAS LISTING /tmp/cccPvPu4.s 			page 14


 524 02cc 13010101 		addi	sp,sp,16
 525              		.cfi_def_cfa_offset 0
 526 02d0 67800000 		jr	ra
 527              		.cfi_endproc
 528              	.LFE65:
 530              		.globl	_ZN3TCB16timeSliceCounterE
 531              		.globl	_ZN3TCB7runningE
 532              		.bss
 533              		.align	3
 534              		.set	.LANCHOR0,. + 0
 537              	_ZN3TCB7runningE:
 538 0000 00000000 		.zero	8
 538      00000000 
 541              	_ZN3TCB16timeSliceCounterE:
 542 0008 00000000 		.zero	8
 542      00000000 
 543              		.text
 544              	.Letext0:
 545              		.file 3 "src/../h/../lib/hw.h"
 546              		.file 4 "src/../h/MemoryAllocator.hpp"
 547              		.file 5 "src/../h/scheduler.hpp"
 548              		.file 6 "src/../h/list.hpp"
 549              		.file 7 "src/../h/riscv.hpp"
 550              		.file 8 "src/../test/../h/syscall_c.hpp"
 4164              		.align	3
 4167              	DW.ref.__gxx_personality_v0:
 4168 0000 00000000 		.dword	__gxx_personality_v0
 4168      00000000 
 4169              		.ident	"GCC: (Ubuntu 9.4.0-1ubuntu1~20.04) 9.4.0"
 4170              		.section	.note.GNU-stack,"",@progbits
GAS LISTING /tmp/cccPvPu4.s 			page 15


DEFINED SYMBOLS
                            *ABS*:0000000000000000 tcb.cpp
     /tmp/cccPvPu4.s:9      .text:0000000000000000 _ZN3TCB12createThreadEPFvPvEPmS0_
     /tmp/cccPvPu4.s:13     .text:0000000000000000 .L0 
     /tmp/cccPvPu4.s:4167   .data.rel.local.DW.ref.__gxx_personality_v0:0000000000000000 DW.ref.__gxx_personality_v0
     /tmp/cccPvPu4.s:17     .text:0000000000000000 .L0 
     /tmp/cccPvPu4.s:18     .text:0000000000000004 .L0 
     /tmp/cccPvPu4.s:25     .text:000000000000001c .L0 
     /tmp/cccPvPu4.s:26     .text:000000000000001c .L0 
     /tmp/cccPvPu4.s:27     .text:000000000000001c .L0 
     /tmp/cccPvPu4.s:28     .text:000000000000001c .L0 
     /tmp/cccPvPu4.s:29     .text:000000000000001c .L0 
     /tmp/cccPvPu4.s:30     .text:000000000000001c .L0 
     /tmp/cccPvPu4.s:32     .text:0000000000000020 .L0 
     /tmp/cccPvPu4.s:41     .text:000000000000002c .L0 
     /tmp/cccPvPu4.s:42     .text:000000000000002c .L0 
     /tmp/cccPvPu4.s:43     .text:000000000000002c .L0 
     /tmp/cccPvPu4.s:56     .text:000000000000003c .L0 
     /tmp/cccPvPu4.s:344    .text:00000000000001cc _ZN3TCB13threadWrapperEv
     /tmp/cccPvPu4.s:61     .text:0000000000000050 .L0 
     /tmp/cccPvPu4.s:63     .text:0000000000000054 .L0 
     /tmp/cccPvPu4.s:68     .text:000000000000005c .L0 
     /tmp/cccPvPu4.s:75     .text:0000000000000074 .L0 
     /tmp/cccPvPu4.s:77     .text:0000000000000078 .L0 
     /tmp/cccPvPu4.s:78     .text:0000000000000078 .L0 
     /tmp/cccPvPu4.s:87     .text:0000000000000088 .L0 
     /tmp/cccPvPu4.s:99     .text:0000000000000094 .L0 
     /tmp/cccPvPu4.s:100    .text:0000000000000094 .L0 
     /tmp/cccPvPu4.s:112    .text:00000000000000ac .L0 
     /tmp/cccPvPu4.s:114    .text:00000000000000b4 .L0 
     /tmp/cccPvPu4.s:116    .text:00000000000000b8 .L0 
     /tmp/cccPvPu4.s:117    .text:00000000000000b8 .L0 
     /tmp/cccPvPu4.s:119    .text:00000000000000bc .L0 
     /tmp/cccPvPu4.s:122    .text:00000000000000c0 .L0 
     /tmp/cccPvPu4.s:124    .text:00000000000000c4 .L0 
     /tmp/cccPvPu4.s:127    .text:00000000000000c8 .L0 
     /tmp/cccPvPu4.s:130    .text:00000000000000cc .L0 
     /tmp/cccPvPu4.s:132    .text:00000000000000d0 .L0 
     /tmp/cccPvPu4.s:158    .text:00000000000000d0 _ZN3TCB12createThreadEPFvPvES0_
     /tmp/cccPvPu4.s:161    .text:00000000000000d0 .L0 
     /tmp/cccPvPu4.s:165    .text:00000000000000d0 .L0 
     /tmp/cccPvPu4.s:166    .text:00000000000000d4 .L0 
     /tmp/cccPvPu4.s:172    .text:00000000000000e8 .L0 
     /tmp/cccPvPu4.s:173    .text:00000000000000e8 .L0 
     /tmp/cccPvPu4.s:174    .text:00000000000000e8 .L0 
     /tmp/cccPvPu4.s:175    .text:00000000000000e8 .L0 
     /tmp/cccPvPu4.s:176    .text:00000000000000e8 .L0 
     /tmp/cccPvPu4.s:178    .text:00000000000000ec .L0 
     /tmp/cccPvPu4.s:185    .text:00000000000000f4 .L0 
     /tmp/cccPvPu4.s:186    .text:00000000000000f4 .L0 
     /tmp/cccPvPu4.s:187    .text:00000000000000f4 .L0 
     /tmp/cccPvPu4.s:200    .text:0000000000000104 .L0 
     /tmp/cccPvPu4.s:202    .text:0000000000000108 .L0 
     /tmp/cccPvPu4.s:204    .text:000000000000010c .L0 
     /tmp/cccPvPu4.s:211    .text:000000000000011c .L0 
     /tmp/cccPvPu4.s:214    .text:0000000000000120 .L0 
     /tmp/cccPvPu4.s:218    .text:0000000000000130 .L0 
GAS LISTING /tmp/cccPvPu4.s 			page 16


     /tmp/cccPvPu4.s:220    .text:0000000000000134 .L0 
     /tmp/cccPvPu4.s:223    .text:0000000000000138 .L0 
     /tmp/cccPvPu4.s:230    .text:0000000000000150 .L0 
     /tmp/cccPvPu4.s:232    .text:0000000000000154 .L0 
     /tmp/cccPvPu4.s:233    .text:0000000000000154 .L0 
     /tmp/cccPvPu4.s:240    .text:0000000000000164 .L0 
     /tmp/cccPvPu4.s:250    .text:0000000000000170 .L0 
     /tmp/cccPvPu4.s:251    .text:0000000000000170 .L0 
     /tmp/cccPvPu4.s:263    .text:0000000000000188 .L0 
     /tmp/cccPvPu4.s:265    .text:0000000000000190 .L0 
     /tmp/cccPvPu4.s:267    .text:0000000000000194 .L0 
     /tmp/cccPvPu4.s:268    .text:0000000000000194 .L0 
     /tmp/cccPvPu4.s:270    .text:0000000000000198 .L0 
     /tmp/cccPvPu4.s:273    .text:000000000000019c .L0 
     /tmp/cccPvPu4.s:276    .text:00000000000001a0 .L0 
     /tmp/cccPvPu4.s:279    .text:00000000000001a4 .L0 
     /tmp/cccPvPu4.s:281    .text:00000000000001a8 .L0 
     /tmp/cccPvPu4.s:306    .text:00000000000001a8 _ZN3TCB5yieldEv
     /tmp/cccPvPu4.s:309    .text:00000000000001a8 .L0 
     /tmp/cccPvPu4.s:310    .text:00000000000001a8 .L0 
     /tmp/cccPvPu4.s:311    .text:00000000000001ac .L0 
     /tmp/cccPvPu4.s:313    .text:00000000000001b0 .L0 
     /tmp/cccPvPu4.s:315    .text:00000000000001b4 .L0 
     /tmp/cccPvPu4.s:318    .text:00000000000001b4 .L0 
     /tmp/cccPvPu4.s:319    .text:00000000000001b4 .L0 
     /tmp/cccPvPu4.s:320    .text:00000000000001b4 .L0 
     /tmp/cccPvPu4.s:326    .text:00000000000001bc .L0 
         src/tcb.cpp:27     .text:00000000000001bc .L0 
     /tmp/cccPvPu4.s:332    .text:00000000000001c0 .L0 
     /tmp/cccPvPu4.s:333    .text:00000000000001c4 .L0 
     /tmp/cccPvPu4.s:334    .text:00000000000001c4 .L0 
     /tmp/cccPvPu4.s:336    .text:00000000000001c8 .L0 
     /tmp/cccPvPu4.s:338    .text:00000000000001cc .L0 
     /tmp/cccPvPu4.s:347    .text:00000000000001cc .L0 
     /tmp/cccPvPu4.s:348    .text:00000000000001cc .L0 
     /tmp/cccPvPu4.s:349    .text:00000000000001d0 .L0 
     /tmp/cccPvPu4.s:353    .text:00000000000001dc .L0 
     /tmp/cccPvPu4.s:354    .text:00000000000001dc .L0 
     /tmp/cccPvPu4.s:355    .text:00000000000001dc .L0 
     /tmp/cccPvPu4.s:357    .text:00000000000001e0 .L0 
     /tmp/cccPvPu4.s:359    .text:00000000000001e0 .L0 
     /tmp/cccPvPu4.s:360    .text:00000000000001e0 .L0 
     /tmp/cccPvPu4.s:363    .text:00000000000001e8 .L0 
     /tmp/cccPvPu4.s:364    .text:00000000000001e8 .L0 
     /tmp/cccPvPu4.s:368    .text:00000000000001f8 .L0 
     /tmp/cccPvPu4.s:372    .text:0000000000000200 .L0 
     /tmp/cccPvPu4.s:373    .text:0000000000000200 .L0 
     /tmp/cccPvPu4.s:378    .text:0000000000000204 .L0 
     /tmp/cccPvPu4.s:379    .text:0000000000000204 .L0 
     /tmp/cccPvPu4.s:385    .text:000000000000020c .L0 
     /tmp/cccPvPu4.s:386    .text:000000000000020c .L0 
     /tmp/cccPvPu4.s:389    .text:0000000000000214 .L0 
     /tmp/cccPvPu4.s:390    .text:0000000000000218 .L0 
     /tmp/cccPvPu4.s:392    .text:000000000000021c .L0 
     /tmp/cccPvPu4.s:393    .text:000000000000021c .L0 
     /tmp/cccPvPu4.s:395    .text:0000000000000220 .L0 
     /tmp/cccPvPu4.s:397    .text:0000000000000224 .L0 
GAS LISTING /tmp/cccPvPu4.s 			page 17


     /tmp/cccPvPu4.s:399    .text:0000000000000228 .L0 
     /tmp/cccPvPu4.s:405    .text:0000000000000228 _ZN3TCB8dispatchEv
     /tmp/cccPvPu4.s:408    .text:0000000000000228 .L0 
     /tmp/cccPvPu4.s:409    .text:0000000000000228 .L0 
     /tmp/cccPvPu4.s:410    .text:000000000000022c .L0 
     /tmp/cccPvPu4.s:414    .text:0000000000000238 .L0 
     /tmp/cccPvPu4.s:415    .text:0000000000000238 .L0 
     /tmp/cccPvPu4.s:416    .text:0000000000000238 .L0 
     /tmp/cccPvPu4.s:418    .text:000000000000023c .L0 
     /tmp/cccPvPu4.s:420    .text:000000000000023c .L0 
     /tmp/cccPvPu4.s:421    .text:000000000000023c .L0 
     /tmp/cccPvPu4.s:426    .text:0000000000000244 .L0 
     /tmp/cccPvPu4.s:427    .text:0000000000000244 .L0 
     /tmp/cccPvPu4.s:428    .text:0000000000000244 .L0 
     /tmp/cccPvPu4.s:433    .text:0000000000000248 .L0 
     /tmp/cccPvPu4.s:438    .text:000000000000024c .L0 
     /tmp/cccPvPu4.s:439    .text:000000000000024c .L0 
     /tmp/cccPvPu4.s:444    .text:0000000000000250 .L0 
     /tmp/cccPvPu4.s:447    .text:0000000000000254 .L0 
     /tmp/cccPvPu4.s:448    .text:0000000000000254 .L0 
     /tmp/cccPvPu4.s:451    .text:000000000000025c .L0 
     /tmp/cccPvPu4.s:453    .text:0000000000000264 .L0 
     /tmp/cccPvPu4.s:454    .text:0000000000000264 .L0 
     /tmp/cccPvPu4.s:459    .text:0000000000000274 .L0 
     /tmp/cccPvPu4.s:460    .text:0000000000000278 .L0 
     /tmp/cccPvPu4.s:461    .text:0000000000000278 .L0 
     /tmp/cccPvPu4.s:463    .text:000000000000027c .L0 
     /tmp/cccPvPu4.s:464    .text:000000000000027c .L0 
     /tmp/cccPvPu4.s:466    .text:0000000000000280 .L0 
     /tmp/cccPvPu4.s:469    .text:0000000000000284 .L0 
     /tmp/cccPvPu4.s:473    .text:0000000000000288 .L0 
     /tmp/cccPvPu4.s:475    .text:0000000000000288 .L0 
     /tmp/cccPvPu4.s:476    .text:0000000000000288 .L0 
     /tmp/cccPvPu4.s:480    .text:0000000000000298 .L0 
     /tmp/cccPvPu4.s:486    .text:0000000000000298 _ZN3TCB10killThreadEv
     /tmp/cccPvPu4.s:489    .text:0000000000000298 .L0 
     /tmp/cccPvPu4.s:490    .text:0000000000000298 .L0 
     /tmp/cccPvPu4.s:491    .text:000000000000029c .L0 
     /tmp/cccPvPu4.s:494    .text:00000000000002a4 .L0 
     /tmp/cccPvPu4.s:495    .text:00000000000002a4 .L0 
     /tmp/cccPvPu4.s:497    .text:00000000000002a8 .L0 
     /tmp/cccPvPu4.s:502    .text:00000000000002a8 .L0 
     /tmp/cccPvPu4.s:503    .text:00000000000002a8 .L0 
     /tmp/cccPvPu4.s:504    .text:00000000000002a8 .L0 
     /tmp/cccPvPu4.s:511    .text:00000000000002b8 .L0 
     /tmp/cccPvPu4.s:512    .text:00000000000002b8 .L0 
     /tmp/cccPvPu4.s:513    .text:00000000000002b8 .L0 
     /tmp/cccPvPu4.s:514    .text:00000000000002b8 .L0 
     /tmp/cccPvPu4.s:517    .text:00000000000002c0 .L0 
     /tmp/cccPvPu4.s:518    .text:00000000000002c0 .L0 
     /tmp/cccPvPu4.s:520    .text:00000000000002c8 .L0 
     /tmp/cccPvPu4.s:522    .text:00000000000002cc .L0 
     /tmp/cccPvPu4.s:523    .text:00000000000002cc .L0 
     /tmp/cccPvPu4.s:525    .text:00000000000002d0 .L0 
     /tmp/cccPvPu4.s:527    .text:00000000000002d4 .L0 
     /tmp/cccPvPu4.s:541    .bss:0000000000000008 _ZN3TCB16timeSliceCounterE
     /tmp/cccPvPu4.s:537    .bss:0000000000000000 _ZN3TCB7runningE
GAS LISTING /tmp/cccPvPu4.s 			page 18


     /tmp/cccPvPu4.s:534    .bss:0000000000000000 .LANCHOR0
     /tmp/cccPvPu4.s:551    .text:00000000000002d4 .L0 
     /tmp/cccPvPu4.s:58     .text:0000000000000044 .L0 
     /tmp/cccPvPu4.s:215    .text:0000000000000124 .L0 
     /tmp/cccPvPu4.s:364    .text:00000000000001e8 .L0 
     /tmp/cccPvPu4.s:421    .text:000000000000023c .L0 
     /tmp/cccPvPu4.s:451    .text:000000000000025c .L0 
     /tmp/cccPvPu4.s:504    .text:00000000000002a8 .L0 
     /tmp/cccPvPu4.s:85     .text:0000000000000088 .L5
     /tmp/cccPvPu4.s:108    .text:00000000000000ac .L1
     /tmp/cccPvPu4.s:66     .text:000000000000005c .L2
     /tmp/cccPvPu4.s:209    .text:000000000000011c .L13
     /tmp/cccPvPu4.s:212    .text:0000000000000120 .L9
     /tmp/cccPvPu4.s:238    .text:0000000000000164 .L14
     /tmp/cccPvPu4.s:259    .text:0000000000000188 .L8
     /tmp/cccPvPu4.s:221    .text:0000000000000138 .L10
     /tmp/cccPvPu4.s:445    .text:0000000000000254 .L22
     /tmp/cccPvPu4.s:472    .text:0000000000000288 .L24
     /tmp/cccPvPu4.s:45     .text:0000000000000030 .LEHB0
     /tmp/cccPvPu4.s:10     .text:0000000000000000 .LFB60
     /tmp/cccPvPu4.s:48     .text:0000000000000038 .LEHE0
     /tmp/cccPvPu4.s:79     .text:000000000000007c .LEHB1
     /tmp/cccPvPu4.s:82     .text:0000000000000084 .LEHE1
     /tmp/cccPvPu4.s:91     .text:0000000000000090 .L6
     /tmp/cccPvPu4.s:104    .text:00000000000000a4 .LEHB2
     /tmp/cccPvPu4.s:107    .text:00000000000000ac .LEHE2
     /tmp/cccPvPu4.s:189    .text:00000000000000f8 .LEHB3
     /tmp/cccPvPu4.s:159    .text:00000000000000d0 .LFB61
     /tmp/cccPvPu4.s:192    .text:0000000000000100 .LEHE3
     /tmp/cccPvPu4.s:205    .text:0000000000000110 .LEHB4
     /tmp/cccPvPu4.s:236    .text:0000000000000160 .LEHE4
     /tmp/cccPvPu4.s:242    .text:000000000000016c .L15
     /tmp/cccPvPu4.s:255    .text:0000000000000180 .LEHB5
     /tmp/cccPvPu4.s:258    .text:0000000000000188 .LEHE5
     /tmp/cccPvPu4.s:2325   .debug_abbrev:0000000000000000 .Ldebug_abbrev0
     /tmp/cccPvPu4.s:4089   .debug_str:00000000000009ae .LASF185
     /tmp/cccPvPu4.s:3899   .debug_str:0000000000000483 .LASF186
     /tmp/cccPvPu4.s:3881   .debug_str:00000000000003dc .LASF187
     /tmp/cccPvPu4.s:5      .text:0000000000000000 .Ltext0
     /tmp/cccPvPu4.s:544    .text:00000000000002d4 .Letext0
     /tmp/cccPvPu4.s:3769   .debug_line:0000000000000000 .Ldebug_line0
     /tmp/cccPvPu4.s:3901   .debug_str:000000000000048f .LASF0
     /tmp/cccPvPu4.s:3935   .debug_str:0000000000000564 .LASF1
     /tmp/cccPvPu4.s:4021   .debug_str:00000000000007ce .LASF2
     /tmp/cccPvPu4.s:3863   .debug_str:0000000000000343 .LASF3
     /tmp/cccPvPu4.s:4031   .debug_str:0000000000000816 .LASF4
     /tmp/cccPvPu4.s:3911   .debug_str:00000000000004c9 .LASF5
     /tmp/cccPvPu4.s:3785   .debug_str:0000000000000085 .LASF6
     /tmp/cccPvPu4.s:3993   .debug_str:00000000000006fe .LASF7
     /tmp/cccPvPu4.s:3927   .debug_str:0000000000000530 .LASF8
     /tmp/cccPvPu4.s:3879   .debug_str:00000000000003cc .LASF9
     /tmp/cccPvPu4.s:3887   .debug_str:0000000000000422 .LASF10
     /tmp/cccPvPu4.s:3817   .debug_str:00000000000001b0 .LASF11
     /tmp/cccPvPu4.s:3869   .debug_str:0000000000000371 .LASF12
     /tmp/cccPvPu4.s:3835   .debug_str:0000000000000241 .LASF13
     /tmp/cccPvPu4.s:3815   .debug_str:00000000000001a0 .LASF14
     /tmp/cccPvPu4.s:4069   .debug_str:000000000000091d .LASF15
GAS LISTING /tmp/cccPvPu4.s 			page 19


     /tmp/cccPvPu4.s:3857   .debug_str:00000000000002f6 .LASF16
     /tmp/cccPvPu4.s:4057   .debug_str:00000000000008c6 .LASF17
     /tmp/cccPvPu4.s:3985   .debug_str:00000000000006c5 .LASF62
     /tmp/cccPvPu4.s:3933   .debug_str:000000000000055f .LASF18
     /tmp/cccPvPu4.s:3819   .debug_str:00000000000001bf .LASF19
     /tmp/cccPvPu4.s:3987   .debug_str:00000000000006d1 .LASF33
     /tmp/cccPvPu4.s:4007   .debug_str:0000000000000774 .LASF20
     /tmp/cccPvPu4.s:3949   .debug_str:00000000000005c8 .LASF21
     /tmp/cccPvPu4.s:4043   .debug_str:000000000000085b .LASF22
     /tmp/cccPvPu4.s:3939   .debug_str:000000000000057d .LASF107
     /tmp/cccPvPu4.s:4097   .debug_str:0000000000000a9d .LASF23
     /tmp/cccPvPu4.s:3797   .debug_str:0000000000000109 .LASF24
     /tmp/cccPvPu4.s:3959   .debug_str:000000000000060c .LASF25
     /tmp/cccPvPu4.s:3789   .debug_str:0000000000000097 .LASF27
     /tmp/cccPvPu4.s:4075   .debug_str:0000000000000945 .LASF26
     /tmp/cccPvPu4.s:3961   .debug_str:0000000000000616 .LASF28
     /tmp/cccPvPu4.s:3955   .debug_str:00000000000005ea .LASF29
     /tmp/cccPvPu4.s:3821   .debug_str:00000000000001c4 .LASF31
     /tmp/cccPvPu4.s:4049   .debug_str:0000000000000893 .LASF86
     /tmp/cccPvPu4.s:4083   .debug_str:0000000000000975 .LASF88
     /tmp/cccPvPu4.s:3865   .debug_str:0000000000000349 .LASF30
     /tmp/cccPvPu4.s:3841   .debug_str:0000000000000264 .LASF32
     /tmp/cccPvPu4.s:3793   .debug_str:00000000000000ce .LASF34
     /tmp/cccPvPu4.s:3877   .debug_str:00000000000003c2 .LASF35
     /tmp/cccPvPu4.s:4051   .debug_str:000000000000089c .LASF105
     /tmp/cccPvPu4.s:4147   .debug_str:0000000000000c0f .LASF188
     /tmp/cccPvPu4.s:3893   .debug_str:0000000000000441 .LASF189
     /tmp/cccPvPu4.s:4117   .debug_str:0000000000000b56 .LASF36
     /tmp/cccPvPu4.s:4153   .debug_str:0000000000000c56 .LASF37
     /tmp/cccPvPu4.s:4111   .debug_str:0000000000000b0a .LASF38
     /tmp/cccPvPu4.s:3809   .debug_str:000000000000015e .LASF39
     /tmp/cccPvPu4.s:4103   .debug_str:0000000000000ac4 .LASF40
     /tmp/cccPvPu4.s:3775   .debug_str:0000000000000016 .LASF41
     /tmp/cccPvPu4.s:3971   .debug_str:0000000000000660 .LASF43
     /tmp/cccPvPu4.s:4055   .debug_str:00000000000008b3 .LASF42
     /tmp/cccPvPu4.s:4059   .debug_str:00000000000008dc .LASF44
     /tmp/cccPvPu4.s:3837   .debug_str:0000000000000251 .LASF190
     /tmp/cccPvPu4.s:4061   .debug_str:00000000000008f0 .LASF45
     /tmp/cccPvPu4.s:3969   .debug_str:000000000000065b .LASF46
     /tmp/cccPvPu4.s:3963   .debug_str:0000000000000637 .LASF47
     /tmp/cccPvPu4.s:4071   .debug_str:0000000000000929 .LASF48
     /tmp/cccPvPu4.s:3867   .debug_str:000000000000035a .LASF54
     /tmp/cccPvPu4.s:4025   .debug_str:00000000000007e9 .LASF191
     /tmp/cccPvPu4.s:4013   .debug_str:0000000000000798 .LASF192
     /tmp/cccPvPu4.s:3931   .debug_str:0000000000000556 .LASF49
     /tmp/cccPvPu4.s:3813   .debug_str:0000000000000183 .LASF50
     /tmp/cccPvPu4.s:3947   .debug_str:00000000000005c0 .LASF51
     /tmp/cccPvPu4.s:3859   .debug_str:000000000000030c .LASF52
     /tmp/cccPvPu4.s:3989   .debug_str:00000000000006e1 .LASF53
     /tmp/cccPvPu4.s:4119   .debug_str:0000000000000b60 .LASF55
     /tmp/cccPvPu4.s:4159   .debug_str:0000000000000c7c .LASF56
     /tmp/cccPvPu4.s:4149   .debug_str:0000000000000c23 .LASF57
     /tmp/cccPvPu4.s:4047   .debug_str:0000000000000888 .LASF58
     /tmp/cccPvPu4.s:3925   .debug_str:0000000000000513 .LASF59
     /tmp/cccPvPu4.s:4005   .debug_str:000000000000076b .LASF60
     /tmp/cccPvPu4.s:3779   .debug_str:0000000000000037 .LASF61
     /tmp/cccPvPu4.s:3827   .debug_str:0000000000000212 .LASF63
GAS LISTING /tmp/cccPvPu4.s 			page 20


     /tmp/cccPvPu4.s:3883   .debug_str:00000000000003fa .LASF64
     /tmp/cccPvPu4.s:3875   .debug_str:00000000000003b6 .LASF65
     /tmp/cccPvPu4.s:3953   .debug_str:00000000000005dd .LASF66
     /tmp/cccPvPu4.s:4023   .debug_str:00000000000007dc .LASF67
     /tmp/cccPvPu4.s:4033   .debug_str:000000000000081d .LASF68
     /tmp/cccPvPu4.s:3783   .debug_str:0000000000000079 .LASF69
     /tmp/cccPvPu4.s:4077   .debug_str:000000000000094e .LASF70
     /tmp/cccPvPu4.s:3965   .debug_str:000000000000063c .LASF71
     /tmp/cccPvPu4.s:3803   .debug_str:000000000000013f .LASF72
     /tmp/cccPvPu4.s:3979   .debug_str:0000000000000698 .LASF73
     /tmp/cccPvPu4.s:4135   .debug_str:0000000000000bbc .LASF74
     /tmp/cccPvPu4.s:3811   .debug_str:000000000000016e .LASF75
     /tmp/cccPvPu4.s:4079   .debug_str:0000000000000959 .LASF76
     /tmp/cccPvPu4.s:3831   .debug_str:0000000000000226 .LASF77
     /tmp/cccPvPu4.s:3941   .debug_str:0000000000000592 .LASF78
     /tmp/cccPvPu4.s:4113   .debug_str:0000000000000b1d .LASF79
     /tmp/cccPvPu4.s:4015   .debug_str:00000000000007af .LASF80
     /tmp/cccPvPu4.s:4045   .debug_str:0000000000000872 .LASF81
     /tmp/cccPvPu4.s:4067   .debug_str:0000000000000910 .LASF82
     /tmp/cccPvPu4.s:3873   .debug_str:0000000000000394 .LASF83
     /tmp/cccPvPu4.s:3981   .debug_str:00000000000006af .LASF193
     /tmp/cccPvPu4.s:4115   .debug_str:0000000000000b36 .LASF84
     /tmp/cccPvPu4.s:3951   .debug_str:00000000000005d2 .LASF85
     /tmp/cccPvPu4.s:3791   .debug_str:00000000000000b8 .LASF119
     /tmp/cccPvPu4.s:3937   .debug_str:0000000000000577 .LASF87
     /tmp/cccPvPu4.s:4091   .debug_str:0000000000000a72 .LASF89
     /tmp/cccPvPu4.s:4087   .debug_str:00000000000009a6 .LASF90
     /tmp/cccPvPu4.s:3829   .debug_str:000000000000021a .LASF194
     /tmp/cccPvPu4.s:3997   .debug_str:0000000000000726 .LASF91
     /tmp/cccPvPu4.s:3851   .debug_str:00000000000002d2 .LASF92
     /tmp/cccPvPu4.s:3773   .debug_str:0000000000000011 .LASF93
     /tmp/cccPvPu4.s:4053   .debug_str:00000000000008ad .LASF94
     /tmp/cccPvPu4.s:4099   .debug_str:0000000000000aa7 .LASF95
     /tmp/cccPvPu4.s:4093   .debug_str:0000000000000a82 .LASF96
     /tmp/cccPvPu4.s:4073   .debug_str:000000000000093c .LASF97
     /tmp/cccPvPu4.s:3975   .debug_str:000000000000067b .LASF98
     /tmp/cccPvPu4.s:3807   .debug_str:0000000000000150 .LASF101
     /tmp/cccPvPu4.s:3943   .debug_str:000000000000059f .LASF103
     /tmp/cccPvPu4.s:3839   .debug_str:0000000000000256 .LASF99
     /tmp/cccPvPu4.s:3781   .debug_str:0000000000000051 .LASF100
     /tmp/cccPvPu4.s:3849   .debug_str:00000000000002c9 .LASF102
     /tmp/cccPvPu4.s:3923   .debug_str:0000000000000500 .LASF104
     /tmp/cccPvPu4.s:4041   .debug_str:000000000000084a .LASF106
     /tmp/cccPvPu4.s:4029   .debug_str:000000000000080b .LASF108
     /tmp/cccPvPu4.s:4141   .debug_str:0000000000000bdf .LASF109
     /tmp/cccPvPu4.s:4011   .debug_str:0000000000000793 .LASF110
     /tmp/cccPvPu4.s:4121   .debug_str:0000000000000b7e .LASF111
     /tmp/cccPvPu4.s:3889   .debug_str:0000000000000430 .LASF112
     /tmp/cccPvPu4.s:3897   .debug_str:000000000000046b .LASF113
     /tmp/cccPvPu4.s:4039   .debug_str:000000000000083c .LASF114
     /tmp/cccPvPu4.s:3861   .debug_str:0000000000000328 .LASF115
     /tmp/cccPvPu4.s:3903   .debug_str:000000000000049c .LASF116
     /tmp/cccPvPu4.s:4133   .debug_str:0000000000000ba2 .LASF117
     /tmp/cccPvPu4.s:4107   .debug_str:0000000000000ae6 .LASF118
     /tmp/cccPvPu4.s:4101   .debug_str:0000000000000aaf .LASF120
     /tmp/cccPvPu4.s:4017   .debug_str:00000000000007ba .LASF121
     /tmp/cccPvPu4.s:3977   .debug_str:0000000000000683 .LASF122
GAS LISTING /tmp/cccPvPu4.s 			page 21


     /tmp/cccPvPu4.s:3999   .debug_str:000000000000073d .LASF123
     /tmp/cccPvPu4.s:4001   .debug_str:0000000000000744 .LASF124
     /tmp/cccPvPu4.s:3973   .debug_str:0000000000000674 .LASF125
     /tmp/cccPvPu4.s:3929   .debug_str:0000000000000543 .LASF126
     /tmp/cccPvPu4.s:4137   .debug_str:0000000000000bc6 .LASF127
     /tmp/cccPvPu4.s:4065   .debug_str:00000000000008fc .LASF128
     /tmp/cccPvPu4.s:3967   .debug_str:0000000000000653 .LASF129
     /tmp/cccPvPu4.s:3871   .debug_str:0000000000000380 .LASF130
     /tmp/cccPvPu4.s:3945   .debug_str:00000000000005b8 .LASF131
     /tmp/cccPvPu4.s:4003   .debug_str:0000000000000757 .LASF132
     /tmp/cccPvPu4.s:4155   .debug_str:0000000000000c63 .LASF133
     /tmp/cccPvPu4.s:3907   .debug_str:00000000000004af .LASF134
     /tmp/cccPvPu4.s:4063   .debug_str:00000000000008f5 .LASF135
     /tmp/cccPvPu4.s:4035   .debug_str:0000000000000822 .LASF136
     /tmp/cccPvPu4.s:4037   .debug_str:0000000000000835 .LASF137
     /tmp/cccPvPu4.s:3825   .debug_str:00000000000001ff .LASF138
     /tmp/cccPvPu4.s:3853   .debug_str:00000000000002e7 .LASF139
     /tmp/cccPvPu4.s:3895   .debug_str:0000000000000459 .LASF140
     /tmp/cccPvPu4.s:3905   .debug_str:00000000000004a9 .LASF141
     /tmp/cccPvPu4.s:3847   .debug_str:00000000000002b7 .LASF142
     /tmp/cccPvPu4.s:3787   .debug_str:000000000000008c .LASF143
     /tmp/cccPvPu4.s:4027   .debug_str:00000000000007f3 .LASF144
     /tmp/cccPvPu4.s:4019   .debug_str:00000000000007c3 .LASF145
     /tmp/cccPvPu4.s:4151   .debug_str:0000000000000c3e .LASF146
     /tmp/cccPvPu4.s:4123   .debug_str:0000000000000b84 .LASF147
     /tmp/cccPvPu4.s:4143   .debug_str:0000000000000bea .LASF148
     /tmp/cccPvPu4.s:3823   .debug_str:00000000000001f5 .LASF149
     /tmp/cccPvPu4.s:3957   .debug_str:00000000000005f6 .LASF150
     /tmp/cccPvPu4.s:4105   .debug_str:0000000000000ad7 .LASF151
     /tmp/cccPvPu4.s:3885   .debug_str:0000000000000406 .LASF152
     /tmp/cccPvPu4.s:4125   .debug_str:0000000000000b8e .LASF153
     /tmp/cccPvPu4.s:3983   .debug_str:00000000000006b4 .LASF154
     /tmp/cccPvPu4.s:3915   .debug_str:00000000000004ec .LASF155
     /tmp/cccPvPu4.s:4085   .debug_str:0000000000000995 .LASF156
     /tmp/cccPvPu4.s:4127   .debug_str:0000000000000b93 .LASF157
     /tmp/cccPvPu4.s:3913   .debug_str:00000000000004db .LASF158
     /tmp/cccPvPu4.s:3917   .debug_str:00000000000004f1 .LASF159
     /tmp/cccPvPu4.s:3991   .debug_str:00000000000006ed .LASF160
     /tmp/cccPvPu4.s:4129   .debug_str:0000000000000b98 .LASF161
     /tmp/cccPvPu4.s:3777   .debug_str:0000000000000026 .LASF162
     /tmp/cccPvPu4.s:3919   .debug_str:00000000000004f6 .LASF163
     /tmp/cccPvPu4.s:4081   .debug_str:0000000000000964 .LASF164
     /tmp/cccPvPu4.s:4131   .debug_str:0000000000000b9d .LASF165
     /tmp/cccPvPu4.s:4157   .debug_str:0000000000000c6b .LASF166
     /tmp/cccPvPu4.s:3921   .debug_str:00000000000004fb .LASF167
     /tmp/cccPvPu4.s:4139   .debug_str:0000000000000bce .LASF168
     /tmp/cccPvPu4.s:3833   .debug_str:000000000000023c .LASF169
     /tmp/cccPvPu4.s:4095   .debug_str:0000000000000a8c .LASF170
     /tmp/cccPvPu4.s:3805   .debug_str:000000000000014b .LASF171
     /tmp/cccPvPu4.s:3771   .debug_str:0000000000000000 .LASF172
     /tmp/cccPvPu4.s:3995   .debug_str:0000000000000711 .LASF173
     /tmp/cccPvPu4.s:3795   .debug_str:00000000000000e7 .LASF174
     /tmp/cccPvPu4.s:3799   .debug_str:0000000000000117 .LASF175
     /tmp/cccPvPu4.s:4109   .debug_str:0000000000000aef .LASF176
     /tmp/cccPvPu4.s:487    .text:0000000000000298 .LFB65
     /tmp/cccPvPu4.s:528    .text:00000000000002d4 .LFE65
     /tmp/cccPvPu4.s:500    .text:00000000000002a8 .LBB48
GAS LISTING /tmp/cccPvPu4.s 			page 22


     /tmp/cccPvPu4.s:509    .text:00000000000002b8 .LBE48
     /tmp/cccPvPu4.s:3422   .debug_loc:0000000000000000 .LLST21
     /tmp/cccPvPu4.s:3430   .debug_loc:0000000000000024 .LLST22
     /tmp/cccPvPu4.s:515    .text:00000000000002c0 .LVL46
     /tmp/cccPvPu4.s:345    .text:00000000000001cc .LFB64
     /tmp/cccPvPu4.s:400    .text:0000000000000228 .LFE64
     /tmp/cccPvPu4.s:375    .text:0000000000000204 .LBB42
     /tmp/cccPvPu4.s:383    .text:000000000000020c .LBE42
     /tmp/cccPvPu4.s:3438   .debug_loc:000000000000004f .LLST16
     /tmp/cccPvPu4.s:3446   .debug_loc:0000000000000073 .LLST17
     /tmp/cccPvPu4.s:361    .text:00000000000001e8 .LVL30
     /tmp/cccPvPu4.s:387    .text:0000000000000214 .LVL34
     /tmp/cccPvPu4.s:406    .text:0000000000000228 .LFB63
     /tmp/cccPvPu4.s:481    .text:0000000000000298 .LFE63
     /tmp/cccPvPu4.s:3453   .debug_loc:0000000000000096 .LLST18
     /tmp/cccPvPu4.s:424    .text:0000000000000244 .LBB44
     /tmp/cccPvPu4.s:431    .text:0000000000000248 .LBE44
     /tmp/cccPvPu4.s:3464   .debug_loc:00000000000000cc .LLST19
     /tmp/cccPvPu4.s:435    .text:000000000000024c .LBB46
     /tmp/cccPvPu4.s:442    .text:0000000000000250 .LBE46
     /tmp/cccPvPu4.s:3471   .debug_loc:00000000000000ef .LLST20
     /tmp/cccPvPu4.s:449    .text:000000000000025c .LVL39
     /tmp/cccPvPu4.s:457    .text:0000000000000274 .LVL40
     /tmp/cccPvPu4.s:478    .text:0000000000000294 .LVL43
     /tmp/cccPvPu4.s:307    .text:00000000000001a8 .LFB62
     /tmp/cccPvPu4.s:339    .text:00000000000001cc .LFE62
     /tmp/cccPvPu4.s:3855   .debug_str:00000000000002ed .LASF177
     /tmp/cccPvPu4.s:282    .text:00000000000001a8 .LFE61
     /tmp/cccPvPu4.s:3478   .debug_loc:0000000000000112 .LLST9
     /tmp/cccPvPu4.s:3507   .debug_loc:0000000000000187 .LLST10
     /tmp/cccPvPu4.s:183    .text:00000000000000f4 .LBB36
     /tmp/cccPvPu4.s:196    .text:0000000000000104 .LBE36
     /tmp/cccPvPu4.s:3525   .debug_loc:00000000000001d3 .LLST11
     /tmp/cccPvPu4.s:191    .text:0000000000000100 .LVL19
     /tmp/cccPvPu4.s:197    .text:0000000000000104 .LBB38
     /tmp/cccPvPu4.s:246    .text:0000000000000170 .LBE38
     /tmp/cccPvPu4.s:3534   .debug_loc:00000000000001f8 .LLST12
     /tmp/cccPvPu4.s:3548   .debug_loc:0000000000000231 .LLST13
     /tmp/cccPvPu4.s:3573   .debug_loc:0000000000000293 .LLST14
     /tmp/cccPvPu4.s:207    .text:0000000000000118 .LVL21
     /tmp/cccPvPu4.s:235    .text:0000000000000160 .LVL22
     /tmp/cccPvPu4.s:247    .text:0000000000000170 .LBB40
     /tmp/cccPvPu4.s:261    .text:0000000000000188 .LBE40
     /tmp/cccPvPu4.s:3584   .debug_loc:00000000000002c9 .LLST15
     /tmp/cccPvPu4.s:253    .text:000000000000017c .LVL24
     /tmp/cccPvPu4.s:257    .text:0000000000000188 .LVL25
     /tmp/cccPvPu4.s:133    .text:00000000000000d0 .LFE60
     /tmp/cccPvPu4.s:3591   .debug_loc:00000000000002ec .LLST0
     /tmp/cccPvPu4.s:3609   .debug_loc:0000000000000338 .LLST1
     /tmp/cccPvPu4.s:3648   .debug_loc:00000000000003d5 .LLST2
     /tmp/cccPvPu4.s:38     .text:000000000000002c .LBB23
     /tmp/cccPvPu4.s:52     .text:000000000000003c .LBE23
     /tmp/cccPvPu4.s:3666   .debug_loc:0000000000000421 .LLST3
     /tmp/cccPvPu4.s:47     .text:0000000000000038 .LVL3
     /tmp/cccPvPu4.s:53     .text:000000000000003c .LBB25
     /tmp/cccPvPu4.s:95     .text:0000000000000094 .LBE25
     /tmp/cccPvPu4.s:3675   .debug_loc:0000000000000446 .LLST4
GAS LISTING /tmp/cccPvPu4.s 			page 23


     /tmp/cccPvPu4.s:3689   .debug_loc:000000000000047f .LLST5
     /tmp/cccPvPu4.s:3724   .debug_loc:0000000000000509 .LLST6
     /tmp/cccPvPu4.s:3738   .debug_loc:0000000000000542 .LLST7
     /tmp/cccPvPu4.s:81     .text:0000000000000084 .LVL6
     /tmp/cccPvPu4.s:96     .text:0000000000000094 .LBB27
     /tmp/cccPvPu4.s:110    .text:00000000000000ac .LBE27
     /tmp/cccPvPu4.s:3749   .debug_loc:0000000000000578 .LLST8
     /tmp/cccPvPu4.s:102    .text:00000000000000a0 .LVL11
     /tmp/cccPvPu4.s:106    .text:00000000000000ac .LVL12
     /tmp/cccPvPu4.s:3843   .debug_str:000000000000029a .LASF178
     /tmp/cccPvPu4.s:4009   .debug_str:000000000000077e .LASF179
     /tmp/cccPvPu4.s:3801   .debug_str:0000000000000128 .LASF180
     /tmp/cccPvPu4.s:3891   .debug_str:000000000000043b .LASF181
     /tmp/cccPvPu4.s:3909   .debug_str:00000000000004c3 .LASF182
     /tmp/cccPvPu4.s:4145   .debug_str:0000000000000c00 .LASF183
     /tmp/cccPvPu4.s:3845   .debug_str:000000000000029f .LASF184
     /tmp/cccPvPu4.s:499    .text:00000000000002a8 .LVL44
     /tmp/cccPvPu4.s:507    .text:00000000000002b8 .LVL45
     /tmp/cccPvPu4.s:374    .text:0000000000000204 .LVL32
     /tmp/cccPvPu4.s:381    .text:000000000000020c .LVL33
     /tmp/cccPvPu4.s:422    .text:0000000000000244 .LVL35
     /tmp/cccPvPu4.s:467    .text:0000000000000280 .LVL41
     /tmp/cccPvPu4.s:471    .text:0000000000000288 .LVL42
     /tmp/cccPvPu4.s:429    .text:0000000000000248 .LVL36
     /tmp/cccPvPu4.s:434    .text:000000000000024c .LVL37
     /tmp/cccPvPu4.s:440    .text:0000000000000250 .LVL38
     /tmp/cccPvPu4.s:164    .text:00000000000000d0 .LVL16
     /tmp/cccPvPu4.s:188    .text:00000000000000f8 .LVL18
     /tmp/cccPvPu4.s:244    .text:0000000000000170 .LVL23
     /tmp/cccPvPu4.s:274    .text:000000000000019c .LVL27
     /tmp/cccPvPu4.s:277    .text:00000000000001a0 .LVL28
     /tmp/cccPvPu4.s:182    .text:00000000000000f4 .LVL17
     /tmp/cccPvPu4.s:194    .text:0000000000000104 .LVL20
     /tmp/cccPvPu4.s:271    .text:0000000000000198 .LVL26
     /tmp/cccPvPu4.s:16     .text:0000000000000000 .LVL0
     /tmp/cccPvPu4.s:44     .text:0000000000000030 .LVL2
     /tmp/cccPvPu4.s:125    .text:00000000000000c4 .LVL14
     /tmp/cccPvPu4.s:65     .text:000000000000005c .LVL5
     /tmp/cccPvPu4.s:84     .text:0000000000000088 .LVL7
     /tmp/cccPvPu4.s:88     .text:000000000000008c .LVL8
     /tmp/cccPvPu4.s:90     .text:0000000000000090 .LVL9
     /tmp/cccPvPu4.s:128    .text:00000000000000c8 .LVL15
     /tmp/cccPvPu4.s:37     .text:000000000000002c .LVL1
     /tmp/cccPvPu4.s:50     .text:000000000000003c .LVL4
     /tmp/cccPvPu4.s:120    .text:00000000000000bc .LVL13
     /tmp/cccPvPu4.s:93     .text:0000000000000094 .LVL10
     /tmp/cccPvPu4.s:552    .debug_info:0000000000000000 .Ldebug_info0
     /tmp/cccPvPu4.s:136    .gcc_except_table:0000000000000000 .LLSDA60
     /tmp/cccPvPu4.s:284    .gcc_except_table:000000000000002b .LLSDA61

UNDEFINED SYMBOLS
_ZN15MemoryAllocator9mem_allocEm
_ZN9Scheduler3putEP3TCB
_ZN15MemoryAllocator8mem_freeEPv
_Unwind_Resume
__gxx_personality_v0
_Znam
GAS LISTING /tmp/cccPvPu4.s 			page 24


_ZN5Riscv10popSppSpieEv
_ZN9Scheduler3getEv
_ZN3TCB13contextSwitchEPNS_7ContextES1_
